

Microchip MPLAB XC8 Assembler V3.10 build 20250813170317 
                                                                                               Tue Nov  4 12:16:28 2025

Microchip MPLAB XC8 C Compiler v3.10 (Free license) build 20250813170317 Og1 
     1                           	processor	16F877A
     2                           	pagewidth 120
     3                           	opt	flic
     4                           	psect	strings,global,class=STRING,space=0,delta=2,noexec
     5                           	psect	cinit,global,class=CODE,space=0,merge=1,delta=2
     6                           	psect	cstackCOMMON,global,class=COMMON,space=1,delta=1,noexec
     7                           	psect	maintext,global,class=CODE,space=0,split=1,delta=2
     8                           	psect	text1,local,class=CODE,space=0,merge=1,delta=2
     9                           	psect	text2,local,class=CODE,space=0,merge=1,delta=2
    10                           	psect	text3,local,class=CODE,space=0,merge=1,delta=2
    11                           	psect	text4,local,class=CODE,space=0,merge=1,delta=2
    12                           	psect	text5,local,class=CODE,space=0,merge=1,delta=2
    13                           	psect	text6,local,class=CODE,space=0,merge=1,delta=2
    14                           	psect	text7,local,class=CODE,space=0,merge=1,delta=2
    15                           	psect	text8,local,class=CODE,space=0,merge=1,delta=2
    16                           	psect	text9,local,class=CODE,space=0,merge=1,delta=2
    17                           	psect	config,global,abs,ovrld,class=CONFIG,space=4,delta=2,noexec
    18                           	dabs	1,0x7E,2
    19     0000                     
    20                           ; Generated 12/10/2023 GMT
    21                           ; 
    22                           ; Copyright © 2023, Microchip Technology Inc. and its subsidiaries ("Microchip")
    23                           ; All rights reserved.
    24                           ; 
    25                           ; This software is developed by Microchip Technology Inc. and its subsidiaries ("Microch
      +                          ip").
    26                           ; 
    27                           ; Redistribution and use in source and binary forms, with or without modification, are
    28                           ; permitted provided that the following conditions are met:
    29                           ; 
    30                           ;     1. Redistributions of source code must retain the above copyright notice, this lis
      +                          t of
    31                           ;        conditions and the following disclaimer.
    32                           ; 
    33                           ;     2. Redistributions in binary form must reproduce the above copyright notice, this 
      +                          list
    34                           ;        of conditions and the following disclaimer in the documentation and/or other
    35                           ;        materials provided with the distribution. Publication is not required when
    36                           ;        this file is used in an embedded application.
    37                           ; 
    38                           ;     3. Microchip's name may not be used to endorse or promote products derived from th
      +                          is
    39                           ;        software without specific prior written permission.
    40                           ; 
    41                           ; THIS SOFTWARE IS PROVIDED BY MICROCHIP "AS IS" AND ANY EXPRESS OR IMPLIED WARRANTIES,
    42                           ; INCLUDING, BUT NOT LIMITED TO, THE IMPLIED WARRANTIES OF MERCHANTABILITY AND FITNESS F
      +                          OR
    43                           ; PURPOSE ARE DISCLAIMED.  IN NO EVENT SHALL MICROCHIP BE LIABLE FOR ANY DIRECT, INDIREC
      +                          T,
    44                           ; INCIDENTAL, SPECIAL, EXEMPLARY, OR CONSEQUENTIAL DAMAGES (INCLUDING BUT NOT LIMITED TO
    45                           ; PROCUREMENT OF SUBSTITUTE GOODS OR SERVICES; LOSS OF USE, DATA OR PROFITS; OR BUSINESS
    46                           ; INTERRUPTION) HOWSOEVER CAUSED AND ON ANY THEORY OF LIABILITY, WHETHER IN CONTRACT, ST
      +                          RICT
    47                           ; LIABILITY, OR TORT (INCLUDING NEGLIGENCE OR OTHERWISE) ARISING IN ANY WAY OUT OF THE U
      +                          SE OF
    48                           ; THIS SOFTWARE, EVEN IF ADVISED OF THE POSSIBILITY OF SUCH DAMAGE.
    49                           ; 
    50                           ; 
    51                           ; Code-generator required, PIC16F877A Definitions
    52                           ; 
    53                           ; SFR Addresses
    54     0004                     fsr             equ	4
    55     0004                     fsr0            equ	4
    56     0000                     indf            equ	0
    57     0000                     indf0           equ	0
    58     0002                     pc              equ	2
    59     0002                     pcl             equ	2
    60     000A                     pclath          equ	10
    61     0003                     status          equ	3
    62     0000                     INDF            equ	0	;# 
    63     0001                     TMR0            equ	1	;# 
    64     0002                     PCL             equ	2	;# 
    65     0003                     STATUS          equ	3	;# 
    66     0004                     FSR             equ	4	;# 
    67     0005                     PORTA           equ	5	;# 
    68     0006                     PORTB           equ	6	;# 
    69     0007                     PORTC           equ	7	;# 
    70     0008                     PORTD           equ	8	;# 
    71     0009                     PORTE           equ	9	;# 
    72     000A                     PCLATH          equ	10	;# 
    73     000B                     INTCON          equ	11	;# 
    74     000C                     PIR1            equ	12	;# 
    75     000D                     PIR2            equ	13	;# 
    76     000E                     TMR1            equ	14	;# 
    77     000E                     TMR1L           equ	14	;# 
    78     000F                     TMR1H           equ	15	;# 
    79     0010                     T1CON           equ	16	;# 
    80     0011                     TMR2            equ	17	;# 
    81     0012                     T2CON           equ	18	;# 
    82     0013                     SSPBUF          equ	19	;# 
    83     0014                     SSPCON          equ	20	;# 
    84     0015                     CCPR1           equ	21	;# 
    85     0015                     CCPR1L          equ	21	;# 
    86     0016                     CCPR1H          equ	22	;# 
    87     0017                     CCP1CON         equ	23	;# 
    88     0018                     RCSTA           equ	24	;# 
    89     0019                     TXREG           equ	25	;# 
    90     001A                     RCREG           equ	26	;# 
    91     001B                     CCPR2           equ	27	;# 
    92     001B                     CCPR2L          equ	27	;# 
    93     001C                     CCPR2H          equ	28	;# 
    94     001D                     CCP2CON         equ	29	;# 
    95     001E                     ADRESH          equ	30	;# 
    96     001F                     ADCON0          equ	31	;# 
    97     0081                     OPTION_REG      equ	129	;# 
    98     0085                     TRISA           equ	133	;# 
    99     0086                     TRISB           equ	134	;# 
   100     0087                     TRISC           equ	135	;# 
   101     0088                     TRISD           equ	136	;# 
   102     0089                     TRISE           equ	137	;# 
   103     008C                     PIE1            equ	140	;# 
   104     008D                     PIE2            equ	141	;# 
   105     008E                     PCON            equ	142	;# 
   106     0091                     SSPCON2         equ	145	;# 
   107     0092                     PR2             equ	146	;# 
   108     0093                     SSPADD          equ	147	;# 
   109     0094                     SSPSTAT         equ	148	;# 
   110     0098                     TXSTA           equ	152	;# 
   111     0099                     SPBRG           equ	153	;# 
   112     009C                     CMCON           equ	156	;# 
   113     009D                     CVRCON          equ	157	;# 
   114     009E                     ADRESL          equ	158	;# 
   115     009F                     ADCON1          equ	159	;# 
   116     010C                     EEDATA          equ	268	;# 
   117     010D                     EEADR           equ	269	;# 
   118     010E                     EEDATH          equ	270	;# 
   119     010F                     EEADRH          equ	271	;# 
   120     018C                     EECON1          equ	396	;# 
   121     018D                     EECON2          equ	397	;# 
   122     0000                     INDF            equ	0	;# 
   123     0001                     TMR0            equ	1	;# 
   124     0002                     PCL             equ	2	;# 
   125     0003                     STATUS          equ	3	;# 
   126     0004                     FSR             equ	4	;# 
   127     0005                     PORTA           equ	5	;# 
   128     0006                     PORTB           equ	6	;# 
   129     0007                     PORTC           equ	7	;# 
   130     0008                     PORTD           equ	8	;# 
   131     0009                     PORTE           equ	9	;# 
   132     000A                     PCLATH          equ	10	;# 
   133     000B                     INTCON          equ	11	;# 
   134     000C                     PIR1            equ	12	;# 
   135     000D                     PIR2            equ	13	;# 
   136     000E                     TMR1            equ	14	;# 
   137     000E                     TMR1L           equ	14	;# 
   138     000F                     TMR1H           equ	15	;# 
   139     0010                     T1CON           equ	16	;# 
   140     0011                     TMR2            equ	17	;# 
   141     0012                     T2CON           equ	18	;# 
   142     0013                     SSPBUF          equ	19	;# 
   143     0014                     SSPCON          equ	20	;# 
   144     0015                     CCPR1           equ	21	;# 
   145     0015                     CCPR1L          equ	21	;# 
   146     0016                     CCPR1H          equ	22	;# 
   147     0017                     CCP1CON         equ	23	;# 
   148     0018                     RCSTA           equ	24	;# 
   149     0019                     TXREG           equ	25	;# 
   150     001A                     RCREG           equ	26	;# 
   151     001B                     CCPR2           equ	27	;# 
   152     001B                     CCPR2L          equ	27	;# 
   153     001C                     CCPR2H          equ	28	;# 
   154     001D                     CCP2CON         equ	29	;# 
   155     001E                     ADRESH          equ	30	;# 
   156     001F                     ADCON0          equ	31	;# 
   157     0081                     OPTION_REG      equ	129	;# 
   158     0085                     TRISA           equ	133	;# 
   159     0086                     TRISB           equ	134	;# 
   160     0087                     TRISC           equ	135	;# 
   161     0088                     TRISD           equ	136	;# 
   162     0089                     TRISE           equ	137	;# 
   163     008C                     PIE1            equ	140	;# 
   164     008D                     PIE2            equ	141	;# 
   165     008E                     PCON            equ	142	;# 
   166     0091                     SSPCON2         equ	145	;# 
   167     0092                     PR2             equ	146	;# 
   168     0093                     SSPADD          equ	147	;# 
   169     0094                     SSPSTAT         equ	148	;# 
   170     0098                     TXSTA           equ	152	;# 
   171     0099                     SPBRG           equ	153	;# 
   172     009C                     CMCON           equ	156	;# 
   173     009D                     CVRCON          equ	157	;# 
   174     009E                     ADRESL          equ	158	;# 
   175     009F                     ADCON1          equ	159	;# 
   176     010C                     EEDATA          equ	268	;# 
   177     010D                     EEADR           equ	269	;# 
   178     010E                     EEDATH          equ	270	;# 
   179     010F                     EEADRH          equ	271	;# 
   180     018C                     EECON1          equ	396	;# 
   181     018D                     EECON2          equ	397	;# 
   182     0006                     _PORTB          set	6
   183     003B                     _RC3            set	59
   184     003A                     _RC2            set	58
   185     0039                     _RC1            set	57
   186     0038                     _RC0            set	56
   187     003F                     _RC7            set	63
   188     003E                     _RC6            set	62
   189     003D                     _RC5            set	61
   190     003C                     _RC4            set	60
   191     0042                     _RD2            set	66
   192     0041                     _RD1            set	65
   193     0040                     _RD0            set	64
   194     0088                     _TRISD          set	136
   195     0087                     _TRISC          set	135
   196     0086                     _TRISB          set	134
   197                           
   198                           	psect	strings
   199     0003                     __pstrings:
   200     0003                     stringtab:
   201     0003                     __stringtab:
   202     0003                     stringcode:	
   203                           ;	String table - string pointers are 1 byte each
   204                           
   205     0003                     stringdir:
   206     0003  3000               	movlw	high stringdir
   207     0004  008A               	movwf	10
   208     0005  0804               	movf	4,w
   209     0006  0A84               	incf	4,f
   210     0007  0782               	addwf	2,f
   211     0008                     __stringbase:
   212     0008  3400               	retlw	0
   213     0009                     __end_of__stringtab:
   214     0009                     STR_1:
   215     0009  3445               	retlw	69	;'E'
   216     000A  346E               	retlw	110	;'n'
   217     000B  3474               	retlw	116	;'t'
   218     000C  3465               	retlw	101	;'e'
   219     000D  3472               	retlw	114	;'r'
   220     000E  3420               	retlw	32	;' '
   221     000F  3474               	retlw	116	;'t'
   222     0010  3468               	retlw	104	;'h'
   223     0011  3465               	retlw	101	;'e'
   224     0012  3420               	retlw	32	;' '
   225     0013  346E               	retlw	110	;'n'
   226     0014  3475               	retlw	117	;'u'
   227     0015  346D               	retlw	109	;'m'
   228     0016  3462               	retlw	98	;'b'
   229     0017  3465               	retlw	101	;'e'
   230     0018  3472               	retlw	114	;'r'
   231     0019  3400               	retlw	0
   232                           
   233                           	psect	cinit
   234     07FC                     start_initialization:	
   235                           ; #config settings
   236                           
   237     07FC                     __initialization:
   238     07FC                     end_of_initialization:	
   239                           ;End of C runtime variable initialization code
   240                           
   241     07FC                     __end_of__initialization:
   242     07FC  0183               	clrf	3
   243     07FD  120A  118A  2D2B   	ljmp	_main	;jump to C main() function
   244                           
   245                           	psect	cstackCOMMON
   246     0070                     __pcstackCOMMON:
   247     0070                     ?_lcd_init:
   248     0070                     ?_send_cmd:	
   249                           ; 1 bytes @ 0x0
   250                           
   251     0070                     ?_KEYPAD:	
   252                           ; 1 bytes @ 0x0
   253                           
   254     0070                     ?_row1:	
   255                           ; 1 bytes @ 0x0
   256                           
   257     0070                     ?_row2:	
   258                           ; 1 bytes @ 0x0
   259                           
   260     0070                     ?_row3:	
   261                           ; 1 bytes @ 0x0
   262                           
   263     0070                     ?_row4:	
   264                           ; 1 bytes @ 0x0
   265                           
   266     0070                     ?_send_data:	
   267                           ; 1 bytes @ 0x0
   268                           
   269     0070                     ?_main:	
   270                           ; 1 bytes @ 0x0
   271                           
   272     0070                     ??_send_cmd:	
   273                           ; 2 bytes @ 0x0
   274                           
   275     0070                     ??_send_data:	
   276                           ; 1 bytes @ 0x0
   277                           
   278                           
   279                           ; 1 bytes @ 0x0
   280     0070                     	ds	2
   281     0072                     send_cmd@a:
   282     0072                     send_data@b:	
   283                           ; 1 bytes @ 0x2
   284                           
   285                           
   286                           ; 1 bytes @ 0x2
   287     0072                     	ds	1
   288     0073                     ?_display_string:
   289     0073                     display_string@msg:	
   290                           ; 1 bytes @ 0x3
   291                           
   292     0073                     ??_lcd_init:	
   293                           ; 1 bytes @ 0x3
   294                           
   295     0073                     ??_row1:	
   296                           ; 1 bytes @ 0x3
   297                           
   298     0073                     ??_row2:	
   299                           ; 1 bytes @ 0x3
   300                           
   301     0073                     ??_row3:	
   302                           ; 1 bytes @ 0x3
   303                           
   304     0073                     ??_row4:	
   305                           ; 1 bytes @ 0x3
   306                           
   307                           
   308                           ; 1 bytes @ 0x3
   309     0073                     	ds	1
   310     0074                     ??_display_string:
   311     0074                     ??_KEYPAD:	
   312                           ; 1 bytes @ 0x4
   313                           
   314     0074                     ??_main:	
   315                           ; 1 bytes @ 0x4
   316                           
   317                           
   318                           ; 1 bytes @ 0x4
   319     0074                     	ds	2
   320                           
   321                           	psect	maintext
   322     052B                     __pmaintext:	
   323 ;;
   324 ;;Main: autosize = 0, tempsize = 2, incstack = 0, save=0
   325 ;;
   326 ;; *************** function _main *****************
   327 ;; Defined at:
   328 ;;		line 46 in file "KEYPAD1.c"
   329 ;; Parameters:    Size  Location     Type
   330 ;;		None
   331 ;; Auto vars:     Size  Location     Type
   332 ;;		None
   333 ;; Return value:  Size  Location     Type
   334 ;;                  2   52[None  ] int 
   335 ;; Registers used:
   336 ;;		wreg, fsr0l, fsr0h, status,2, status,0, pclath, cstack
   337 ;; Tracked objects:
   338 ;;		On entry : B00/0
   339 ;;		On exit  : 0/0
   340 ;;		Unchanged: 0/0
   341 ;; Data sizes:     COMMON   BANK0   BANK1   BANK3   BANK2
   342 ;;      Params:         0       0       0       0       0
   343 ;;      Locals:         0       0       0       0       0
   344 ;;      Temps:          2       0       0       0       0
   345 ;;      Totals:         2       0       0       0       0
   346 ;;Total ram usage:        2 bytes
   347 ;; Hardware stack levels required when called: 3
   348 ;; This function calls:
   349 ;;		_KEYPAD
   350 ;;		_display_string
   351 ;;		_lcd_init
   352 ;;		_send_cmd
   353 ;; This function is called by:
   354 ;;		Startup code after reset
   355 ;; This function uses a non-reentrant model
   356 ;;
   357                           
   358     052B                     _main:	
   359                           ;psect for function _main
   360                           
   361     052B                     l845:	
   362                           ;incstack = 0
   363                           ; Regs used in _main: [wreg-fsr0h+status,2+status,0+pclath+cstack]
   364                           
   365                           
   366                           ;KEYPAD1.c: 48:     PORTB = 0X00;
   367     052B  1283               	bcf	3,5	;RP0=0, select bank0
   368     052C  1303               	bcf	3,6	;RP1=0, select bank0
   369     052D  0186               	clrf	6	;volatile
   370                           
   371                           ;KEYPAD1.c: 49:     TRISB = 0x00;
   372     052E  1683               	bsf	3,5	;RP0=1, select bank1
   373     052F  1303               	bcf	3,6	;RP1=0, select bank1
   374     0530  0186               	clrf	6	;volatile
   375     0531                     l847:
   376                           
   377                           ;KEYPAD1.c: 50:     TRISC = 0xF0;
   378     0531  30F0               	movlw	240
   379     0532  0087               	movwf	7	;volatile
   380                           
   381                           ;KEYPAD1.c: 51:     TRISD = 0X00;
   382     0533  0188               	clrf	8	;volatile
   383     0534                     l849:
   384                           
   385                           ;KEYPAD1.c: 52:     lcd_init();
   386     0534  120A  118A  24DB  120A  118A  	fcall	_lcd_init
   387     0539                     l851:
   388                           
   389                           ;KEYPAD1.c: 54:     {;KEYPAD1.c: 56:         send_cmd(0x80);
   390     0539  3080               	movlw	128
   391     053A  120A  118A  24C6  120A  118A  	fcall	_send_cmd
   392     053F                     l853:
   393                           
   394                           ;KEYPAD1.c: 57:   display_string("Enter the number");
   395     053F  3001               	movlw	(low ((STR_1-__stringbase)| (0+32768)))& (0+255)
   396     0540  00F3               	movwf	display_string@msg
   397     0541  120A  118A  250F  120A  118A  	fcall	_display_string
   398     0546                     l855:
   399                           
   400                           ;KEYPAD1.c: 58:   _delay((unsigned long)((10)*(20000000/4000.0)));
   401     0546  3041               	movlw	65
   402     0547  00F5               	movwf	??_main+1
   403     0548  30EE               	movlw	238
   404     0549  00F4               	movwf	??_main
   405     054A                     u907:
   406     054A  0BF4               	decfsz	??_main,f
   407     054B  2D4A               	goto	u907
   408     054C  0BF5               	decfsz	??_main+1,f
   409     054D  2D4A               	goto	u907
   410     054E  0000               	nop
   411     054F                     l857:
   412                           
   413                           ;KEYPAD1.c: 59:   send_cmd(0xc0);
   414     054F  30C0               	movlw	192
   415     0550  120A  118A  24C6  120A  118A  	fcall	_send_cmd
   416     0555                     l859:
   417                           
   418                           ;KEYPAD1.c: 60:   KEYPAD();
   419     0555  120A  118A  24F4  120A  118A  	fcall	_KEYPAD
   420     055A  2D39               	goto	l851
   421     055B  120A  118A  2800   	ljmp	start
   422     055E                     __end_of_main:
   423                           
   424                           	psect	text1
   425     04DB                     __ptext1:	
   426 ;; *************** function _lcd_init *****************
   427 ;; Defined at:
   428 ;;		line 63 in file "KEYPAD1.c"
   429 ;; Parameters:    Size  Location     Type
   430 ;;		None
   431 ;; Auto vars:     Size  Location     Type
   432 ;;		None
   433 ;; Return value:  Size  Location     Type
   434 ;;                  1    wreg      void 
   435 ;; Registers used:
   436 ;;		wreg, status,2, status,0, pclath, cstack
   437 ;; Tracked objects:
   438 ;;		On entry : 0/0
   439 ;;		On exit  : 0/0
   440 ;;		Unchanged: 0/0
   441 ;; Data sizes:     COMMON   BANK0   BANK1   BANK3   BANK2
   442 ;;      Params:         0       0       0       0       0
   443 ;;      Locals:         0       0       0       0       0
   444 ;;      Temps:          0       0       0       0       0
   445 ;;      Totals:         0       0       0       0       0
   446 ;;Total ram usage:        0 bytes
   447 ;; Hardware stack levels used: 1
   448 ;; Hardware stack levels required when called: 1
   449 ;; This function calls:
   450 ;;		_send_cmd
   451 ;; This function is called by:
   452 ;;		_main
   453 ;; This function uses a non-reentrant model
   454 ;;
   455                           
   456     04DB                     _lcd_init:	
   457                           ;psect for function _lcd_init
   458                           
   459     04DB                     l807:	
   460                           ;incstack = 0
   461                           ; Regs used in _lcd_init: [wreg+status,2+status,0+pclath+cstack]
   462                           
   463                           
   464                           ;KEYPAD1.c: 65:  send_cmd(0x38);
   465     04DB  3038               	movlw	56
   466     04DC  120A  118A  24C6  120A  118A  	fcall	_send_cmd
   467                           
   468                           ;KEYPAD1.c: 66:  send_cmd(0x0e);
   469     04E1  300E               	movlw	14
   470     04E2  120A  118A  24C6  120A  118A  	fcall	_send_cmd
   471                           
   472                           ;KEYPAD1.c: 67:  send_cmd(0x01);
   473     04E7  3001               	movlw	1
   474     04E8  120A  118A  24C6  120A  118A  	fcall	_send_cmd
   475                           
   476                           ;KEYPAD1.c: 68:  send_cmd(0x06);
   477     04ED  3006               	movlw	6
   478     04EE  120A  118A  24C6  120A  118A  	fcall	_send_cmd
   479     04F3                     l59:
   480     04F3  0008               	return
   481     04F4                     __end_of_lcd_init:
   482                           
   483                           	psect	text2
   484     050F                     __ptext2:	
   485 ;; *************** function _display_string *****************
   486 ;; Defined at:
   487 ;;		line 88 in file "KEYPAD1.c"
   488 ;; Parameters:    Size  Location     Type
   489 ;;  msg             1    3[COMMON] PTR unsigned char 
   490 ;;		 -> STR_1(17), 
   491 ;; Auto vars:     Size  Location     Type
   492 ;;		None
   493 ;; Return value:  Size  Location     Type
   494 ;;                  1    wreg      void 
   495 ;; Registers used:
   496 ;;		wreg, fsr0l, fsr0h, status,2, status,0, pclath, cstack
   497 ;; Tracked objects:
   498 ;;		On entry : 0/0
   499 ;;		On exit  : 0/0
   500 ;;		Unchanged: 0/0
   501 ;; Data sizes:     COMMON   BANK0   BANK1   BANK3   BANK2
   502 ;;      Params:         1       0       0       0       0
   503 ;;      Locals:         0       0       0       0       0
   504 ;;      Temps:          0       0       0       0       0
   505 ;;      Totals:         1       0       0       0       0
   506 ;;Total ram usage:        1 bytes
   507 ;; Hardware stack levels used: 1
   508 ;; Hardware stack levels required when called: 1
   509 ;; This function calls:
   510 ;;		_send_data
   511 ;; This function is called by:
   512 ;;		_main
   513 ;; This function uses a non-reentrant model
   514 ;;
   515                           
   516     050F                     _display_string:	
   517                           ;psect for function _display_string
   518                           
   519     050F                     l837:	
   520                           ;incstack = 0
   521                           ; Regs used in _display_string: [wreg-fsr0h+status,2+status,0+pclath+cstack]
   522                           
   523                           
   524                           ;KEYPAD1.c: 88: void display_string(char *msg);KEYPAD1.c: 89: {;KEYPAD1.c: 90:     while
      +                          (*msg)
   525     050F  2D1E               	goto	l843
   526     0510                     l839:
   527                           
   528                           ;KEYPAD1.c: 91:     {;KEYPAD1.c: 92:         send_data(*msg++);
   529     0510  0873               	movf	display_string@msg,w
   530     0511  0084               	movwf	4
   531     0512  120A  118A  2003  120A  118A  	fcall	stringdir
   532     0517  120A  118A  24B1  120A  118A  	fcall	_send_data
   533     051C                     l841:
   534     051C  3001               	movlw	1
   535     051D  07F3               	addwf	display_string@msg,f
   536     051E                     l843:
   537                           
   538                           ;KEYPAD1.c: 90:     while(*msg)
   539     051E  0873               	movf	display_string@msg,w
   540     051F  0084               	movwf	4
   541     0520  120A  118A  2003  120A  118A  	fcall	stringdir
   542     0525  3A00               	xorlw	0
   543     0526  1D03               	skipz
   544     0527  2D29               	goto	u891
   545     0528  2D2A               	goto	u890
   546     0529                     u891:
   547     0529  2D10               	goto	l839
   548     052A                     u890:
   549     052A                     l71:
   550     052A  0008               	return
   551     052B                     __end_of_display_string:
   552                           
   553                           	psect	text3
   554     04F4                     __ptext3:	
   555 ;; *************** function _KEYPAD *****************
   556 ;; Defined at:
   557 ;;		line 96 in file "KEYPAD1.c"
   558 ;; Parameters:    Size  Location     Type
   559 ;;		None
   560 ;; Auto vars:     Size  Location     Type
   561 ;;		None
   562 ;; Return value:  Size  Location     Type
   563 ;;                  1    wreg      void 
   564 ;; Registers used:
   565 ;;		wreg, status,2, status,0, pclath, cstack
   566 ;; Tracked objects:
   567 ;;		On entry : 0/0
   568 ;;		On exit  : 0/0
   569 ;;		Unchanged: 0/0
   570 ;; Data sizes:     COMMON   BANK0   BANK1   BANK3   BANK2
   571 ;;      Params:         0       0       0       0       0
   572 ;;      Locals:         0       0       0       0       0
   573 ;;      Temps:          0       0       0       0       0
   574 ;;      Totals:         0       0       0       0       0
   575 ;;Total ram usage:        0 bytes
   576 ;; Hardware stack levels used: 1
   577 ;; Hardware stack levels required when called: 2
   578 ;; This function calls:
   579 ;;		_row1
   580 ;;		_row2
   581 ;;		_row3
   582 ;;		_row4
   583 ;; This function is called by:
   584 ;;		_main
   585 ;; This function uses a non-reentrant model
   586 ;;
   587                           
   588     04F4                     _KEYPAD:	
   589                           ;psect for function _KEYPAD
   590                           
   591     04F4                     l817:	
   592                           ;incstack = 0
   593                           ; Regs used in _KEYPAD: [wreg+status,2+status,0+pclath+cstack]
   594                           
   595                           
   596                           ;KEYPAD1.c: 98:     RC4 = RC5 = RC6= RC7 =0;
   597     04F4  1283               	bcf	3,5	;RP0=0, select bank0
   598     04F5  1303               	bcf	3,6	;RP1=0, select bank0
   599     04F6  1387               	bcf	7,7	;volatile
   600     04F7  1307               	bcf	7,6	;volatile
   601     04F8  1287               	bcf	7,5	;volatile
   602     04F9  1207               	bcf	7,4	;volatile
   603     04FA                     l819:
   604                           
   605                           ;KEYPAD1.c: 99:     row1();
   606     04FA  120A  118A  255E  120A  118A  	fcall	_row1
   607                           
   608                           ;KEYPAD1.c: 100:     row2();
   609     04FF  120A  118A  2672  120A  118A  	fcall	_row2
   610                           
   611                           ;KEYPAD1.c: 101:     row3();
   612     0504  120A  118A  25BA  120A  118A  	fcall	_row3
   613                           
   614                           ;KEYPAD1.c: 102:     row4();
   615     0509  120A  118A  2730  120A  118A  	fcall	_row4
   616     050E                     l74:
   617     050E  0008               	return
   618     050F                     __end_of_KEYPAD:
   619                           
   620                           	psect	text4
   621     0730                     __ptext4:	
   622 ;; *************** function _row4 *****************
   623 ;; Defined at:
   624 ;;		line 180 in file "KEYPAD1.c"
   625 ;; Parameters:    Size  Location     Type
   626 ;;		None
   627 ;; Auto vars:     Size  Location     Type
   628 ;;		None
   629 ;; Return value:  Size  Location     Type
   630 ;;                  1    wreg      void 
   631 ;; Registers used:
   632 ;;		wreg, status,2, status,0, pclath, cstack
   633 ;; Tracked objects:
   634 ;;		On entry : 0/0
   635 ;;		On exit  : 0/0
   636 ;;		Unchanged: 0/0
   637 ;; Data sizes:     COMMON   BANK0   BANK1   BANK3   BANK2
   638 ;;      Params:         0       0       0       0       0
   639 ;;      Locals:         0       0       0       0       0
   640 ;;      Temps:          1       0       0       0       0
   641 ;;      Totals:         1       0       0       0       0
   642 ;;Total ram usage:        1 bytes
   643 ;; Hardware stack levels used: 1
   644 ;; Hardware stack levels required when called: 1
   645 ;; This function calls:
   646 ;;		_send_cmd
   647 ;;		_send_data
   648 ;; This function is called by:
   649 ;;		_KEYPAD
   650 ;; This function uses a non-reentrant model
   651 ;;
   652                           
   653     0730                     _row4:	
   654                           ;psect for function _row4
   655                           
   656     0730                     l781:	
   657                           ;incstack = 0
   658                           ; Regs used in _row4: [wreg+status,2+status,0+pclath+cstack]
   659                           
   660                           
   661                           ;KEYPAD1.c: 182:   RC1=RC2=RC0 =1;
   662     0730  1283               	bcf	3,5	;RP0=0, select bank0
   663     0731  1303               	bcf	3,6	;RP1=0, select bank0
   664     0732  1407               	bsf	7,0	;volatile
   665     0733  1807               	btfsc	7,0	;volatile
   666     0734  2F36               	goto	u611
   667     0735  2F3A               	goto	u610
   668     0736                     u611:
   669     0736  1283               	bcf	3,5	;RP0=0, select bank0
   670     0737  1303               	bcf	3,6	;RP1=0, select bank0
   671     0738  1507               	bsf	7,2	;volatile
   672     0739  2F3D               	goto	u624
   673     073A                     u610:
   674     073A  1283               	bcf	3,5	;RP0=0, select bank0
   675     073B  1303               	bcf	3,6	;RP1=0, select bank0
   676     073C  1107               	bcf	7,2	;volatile
   677     073D                     u624:
   678     073D  1907               	btfsc	7,2	;volatile
   679     073E  2F40               	goto	u621
   680     073F  2F44               	goto	u620
   681     0740                     u621:
   682     0740  1283               	bcf	3,5	;RP0=0, select bank0
   683     0741  1303               	bcf	3,6	;RP1=0, select bank0
   684     0742  1487               	bsf	7,1	;volatile
   685     0743  2F47               	goto	u634
   686     0744                     u620:
   687     0744  1283               	bcf	3,5	;RP0=0, select bank0
   688     0745  1303               	bcf	3,6	;RP1=0, select bank0
   689     0746  1087               	bcf	7,1	;volatile
   690     0747                     u634:
   691                           
   692                           ;KEYPAD1.c: 183:   RC3 =0;
   693     0747  1187               	bcf	7,3	;volatile
   694     0748                     l783:
   695                           
   696                           ;KEYPAD1.c: 184:   if(RC4 == RC3)
   697     0748  1987               	btfsc	7,3	;volatile
   698     0749  2F4B               	goto	u641
   699     074A  2F4D               	goto	u640
   700     074B                     u641:
   701     074B  3001               	movlw	1
   702     074C  2F4E               	goto	u642
   703     074D                     u640:
   704     074D  3000               	movlw	0
   705     074E                     u642:
   706     074E  00F3               	movwf	??_row4
   707     074F  1A07               	btfsc	7,4	;volatile
   708     0750  2F52               	goto	u651
   709     0751  2F54               	goto	u650
   710     0752                     u651:
   711     0752  3001               	movlw	1
   712     0753  2F55               	goto	u652
   713     0754                     u650:
   714     0754  3000               	movlw	0
   715     0755                     u652:
   716     0755  0673               	xorwf	??_row4,w
   717     0756  1D03               	skipz
   718     0757  2F59               	goto	u661
   719     0758  2F5A               	goto	u660
   720     0759                     u661:
   721     0759  2F75               	goto	l789
   722     075A                     u660:
   723     075A                     l785:
   724                           
   725                           ;KEYPAD1.c: 185:   {;KEYPAD1.c: 186:    send_cmd(0x01);
   726     075A  3001               	movlw	1
   727     075B  120A  118A  24C6  120A  118A  	fcall	_send_cmd
   728     0760                     l787:	
   729                           ;KEYPAD1.c: 187:    while(RC4==RC3);
   730                           
   731     0760  1283               	bcf	3,5	;RP0=0, select bank0
   732     0761  1303               	bcf	3,6	;RP1=0, select bank0
   733     0762  1987               	btfsc	7,3	;volatile
   734     0763  2F65               	goto	u671
   735     0764  2F67               	goto	u670
   736     0765                     u671:
   737     0765  3001               	movlw	1
   738     0766  2F68               	goto	u672
   739     0767                     u670:
   740     0767  3000               	movlw	0
   741     0768                     u672:
   742     0768  00F3               	movwf	??_row4
   743     0769  1A07               	btfsc	7,4	;volatile
   744     076A  2F6C               	goto	u681
   745     076B  2F6E               	goto	u680
   746     076C                     u681:
   747     076C  3001               	movlw	1
   748     076D  2F6F               	goto	u682
   749     076E                     u680:
   750     076E  3000               	movlw	0
   751     076F                     u682:
   752     076F  0673               	xorwf	??_row4,w
   753     0770  1903               	skipnz
   754     0771  2F73               	goto	u691
   755     0772  2F74               	goto	u690
   756     0773                     u691:
   757     0773  2F60               	goto	l787
   758     0774                     u690:
   759     0774  2FFB               	goto	l159
   760     0775                     l789:
   761     0775  1987               	btfsc	7,3	;volatile
   762     0776  2F78               	goto	u701
   763     0777  2F7A               	goto	u700
   764     0778                     u701:
   765     0778  3001               	movlw	1
   766     0779  2F7B               	goto	u702
   767     077A                     u700:
   768     077A  3000               	movlw	0
   769     077B                     u702:
   770     077B  00F3               	movwf	??_row4
   771     077C  1A87               	btfsc	7,5	;volatile
   772     077D  2F7F               	goto	u711
   773     077E  2F81               	goto	u710
   774     077F                     u711:
   775     077F  3001               	movlw	1
   776     0780  2F82               	goto	u712
   777     0781                     u710:
   778     0781  3000               	movlw	0
   779     0782                     u712:
   780     0782  0673               	xorwf	??_row4,w
   781     0783  1D03               	skipz
   782     0784  2F86               	goto	u721
   783     0785  2F87               	goto	u720
   784     0786                     u721:
   785     0786  2FA2               	goto	l795
   786     0787                     u720:
   787     0787                     l791:
   788                           
   789                           ;KEYPAD1.c: 190:   {;KEYPAD1.c: 191:    send_data('0');
   790     0787  3030               	movlw	48
   791     0788  120A  118A  24B1  120A  118A  	fcall	_send_data
   792     078D                     l793:	
   793                           ;KEYPAD1.c: 192:    while(RC5 == RC3);
   794                           
   795     078D  1283               	bcf	3,5	;RP0=0, select bank0
   796     078E  1303               	bcf	3,6	;RP1=0, select bank0
   797     078F  1987               	btfsc	7,3	;volatile
   798     0790  2F92               	goto	u731
   799     0791  2F94               	goto	u730
   800     0792                     u731:
   801     0792  3001               	movlw	1
   802     0793  2F95               	goto	u732
   803     0794                     u730:
   804     0794  3000               	movlw	0
   805     0795                     u732:
   806     0795  00F3               	movwf	??_row4
   807     0796  1A87               	btfsc	7,5	;volatile
   808     0797  2F99               	goto	u741
   809     0798  2F9B               	goto	u740
   810     0799                     u741:
   811     0799  3001               	movlw	1
   812     079A  2F9C               	goto	u742
   813     079B                     u740:
   814     079B  3000               	movlw	0
   815     079C                     u742:
   816     079C  0673               	xorwf	??_row4,w
   817     079D  1903               	skipnz
   818     079E  2FA0               	goto	u751
   819     079F  2FA1               	goto	u750
   820     07A0                     u751:
   821     07A0  2F8D               	goto	l793
   822     07A1                     u750:
   823     07A1  2FFB               	goto	l159
   824     07A2                     l795:
   825     07A2  1987               	btfsc	7,3	;volatile
   826     07A3  2FA5               	goto	u761
   827     07A4  2FA7               	goto	u760
   828     07A5                     u761:
   829     07A5  3001               	movlw	1
   830     07A6  2FA8               	goto	u762
   831     07A7                     u760:
   832     07A7  3000               	movlw	0
   833     07A8                     u762:
   834     07A8  00F3               	movwf	??_row4
   835     07A9  1B07               	btfsc	7,6	;volatile
   836     07AA  2FAC               	goto	u771
   837     07AB  2FAE               	goto	u770
   838     07AC                     u771:
   839     07AC  3001               	movlw	1
   840     07AD  2FAF               	goto	u772
   841     07AE                     u770:
   842     07AE  3000               	movlw	0
   843     07AF                     u772:
   844     07AF  0673               	xorwf	??_row4,w
   845     07B0  1D03               	skipz
   846     07B1  2FB3               	goto	u781
   847     07B2  2FB4               	goto	u780
   848     07B3                     u781:
   849     07B3  2FCF               	goto	l801
   850     07B4                     u780:
   851     07B4                     l797:
   852                           
   853                           ;KEYPAD1.c: 195:   {;KEYPAD1.c: 196:    send_data('=');
   854     07B4  303D               	movlw	61
   855     07B5  120A  118A  24B1  120A  118A  	fcall	_send_data
   856     07BA                     l799:	
   857                           ;KEYPAD1.c: 197:    while(RC6 == RC3);
   858                           
   859     07BA  1283               	bcf	3,5	;RP0=0, select bank0
   860     07BB  1303               	bcf	3,6	;RP1=0, select bank0
   861     07BC  1987               	btfsc	7,3	;volatile
   862     07BD  2FBF               	goto	u791
   863     07BE  2FC1               	goto	u790
   864     07BF                     u791:
   865     07BF  3001               	movlw	1
   866     07C0  2FC2               	goto	u792
   867     07C1                     u790:
   868     07C1  3000               	movlw	0
   869     07C2                     u792:
   870     07C2  00F3               	movwf	??_row4
   871     07C3  1B07               	btfsc	7,6	;volatile
   872     07C4  2FC6               	goto	u801
   873     07C5  2FC8               	goto	u800
   874     07C6                     u801:
   875     07C6  3001               	movlw	1
   876     07C7  2FC9               	goto	u802
   877     07C8                     u800:
   878     07C8  3000               	movlw	0
   879     07C9                     u802:
   880     07C9  0673               	xorwf	??_row4,w
   881     07CA  1903               	skipnz
   882     07CB  2FCD               	goto	u811
   883     07CC  2FCE               	goto	u810
   884     07CD                     u811:
   885     07CD  2FBA               	goto	l799
   886     07CE                     u810:
   887     07CE  2FFB               	goto	l159
   888     07CF                     l801:
   889     07CF  1987               	btfsc	7,3	;volatile
   890     07D0  2FD2               	goto	u821
   891     07D1  2FD4               	goto	u820
   892     07D2                     u821:
   893     07D2  3001               	movlw	1
   894     07D3  2FD5               	goto	u822
   895     07D4                     u820:
   896     07D4  3000               	movlw	0
   897     07D5                     u822:
   898     07D5  00F3               	movwf	??_row4
   899     07D6  1B87               	btfsc	7,7	;volatile
   900     07D7  2FD9               	goto	u831
   901     07D8  2FDB               	goto	u830
   902     07D9                     u831:
   903     07D9  3001               	movlw	1
   904     07DA  2FDC               	goto	u832
   905     07DB                     u830:
   906     07DB  3000               	movlw	0
   907     07DC                     u832:
   908     07DC  0673               	xorwf	??_row4,w
   909     07DD  1D03               	skipz
   910     07DE  2FE0               	goto	u841
   911     07DF  2FE1               	goto	u840
   912     07E0                     u841:
   913     07E0  2FFB               	goto	l159
   914     07E1                     u840:
   915     07E1                     l803:
   916                           
   917                           ;KEYPAD1.c: 200:   {;KEYPAD1.c: 201:    send_data('+');
   918     07E1  302B               	movlw	43
   919     07E2  120A  118A  24B1  120A  118A  	fcall	_send_data
   920     07E7                     l805:	
   921                           ;KEYPAD1.c: 202:    while(RC7==RC3);
   922                           
   923     07E7  1283               	bcf	3,5	;RP0=0, select bank0
   924     07E8  1303               	bcf	3,6	;RP1=0, select bank0
   925     07E9  1987               	btfsc	7,3	;volatile
   926     07EA  2FEC               	goto	u851
   927     07EB  2FEE               	goto	u850
   928     07EC                     u851:
   929     07EC  3001               	movlw	1
   930     07ED  2FEF               	goto	u852
   931     07EE                     u850:
   932     07EE  3000               	movlw	0
   933     07EF                     u852:
   934     07EF  00F3               	movwf	??_row4
   935     07F0  1B87               	btfsc	7,7	;volatile
   936     07F1  2FF3               	goto	u861
   937     07F2  2FF5               	goto	u860
   938     07F3                     u861:
   939     07F3  3001               	movlw	1
   940     07F4  2FF6               	goto	u862
   941     07F5                     u860:
   942     07F5  3000               	movlw	0
   943     07F6                     u862:
   944     07F6  0673               	xorwf	??_row4,w
   945     07F7  1903               	skipnz
   946     07F8  2FFA               	goto	u871
   947     07F9  2FFB               	goto	u870
   948     07FA                     u871:
   949     07FA  2FE7               	goto	l805
   950     07FB                     u870:
   951     07FB                     l159:
   952     07FB  0008               	return
   953     07FC                     __end_of_row4:
   954                           
   955                           	psect	text5
   956     04C6                     __ptext5:	
   957 ;; *************** function _send_cmd *****************
   958 ;; Defined at:
   959 ;;		line 70 in file "KEYPAD1.c"
   960 ;; Parameters:    Size  Location     Type
   961 ;;  a               1    wreg     unsigned char 
   962 ;; Auto vars:     Size  Location     Type
   963 ;;  a               1    2[COMMON] unsigned char 
   964 ;; Return value:  Size  Location     Type
   965 ;;                  1    wreg      void 
   966 ;; Registers used:
   967 ;;		wreg
   968 ;; Tracked objects:
   969 ;;		On entry : 0/0
   970 ;;		On exit  : 0/0
   971 ;;		Unchanged: 0/0
   972 ;; Data sizes:     COMMON   BANK0   BANK1   BANK3   BANK2
   973 ;;      Params:         0       0       0       0       0
   974 ;;      Locals:         1       0       0       0       0
   975 ;;      Temps:          2       0       0       0       0
   976 ;;      Totals:         3       0       0       0       0
   977 ;;Total ram usage:        3 bytes
   978 ;; Hardware stack levels used: 1
   979 ;; This function calls:
   980 ;;		Nothing
   981 ;; This function is called by:
   982 ;;		_main
   983 ;;		_lcd_init
   984 ;;		_row4
   985 ;; This function uses a non-reentrant model
   986 ;;
   987                           
   988     04C6                     _send_cmd:	
   989                           ;psect for function _send_cmd
   990                           
   991                           
   992                           ;incstack = 0
   993                           ; Regs used in _send_cmd: [wreg]
   994                           ;send_cmd@a stored from wreg
   995     04C6  00F2               	movwf	send_cmd@a
   996     04C7                     l703:
   997                           
   998                           ;KEYPAD1.c: 70: void send_cmd(char a);KEYPAD1.c: 71: {;KEYPAD1.c: 72:     PORTB = a;
   999     04C7  0872               	movf	send_cmd@a,w
  1000     04C8  1283               	bcf	3,5	;RP0=0, select bank0
  1001     04C9  1303               	bcf	3,6	;RP1=0, select bank0
  1002     04CA  0086               	movwf	6	;volatile
  1003     04CB                     l705:
  1004                           
  1005                           ;KEYPAD1.c: 73:     RD0 = 0;
  1006     04CB  1008               	bcf	8,0	;volatile
  1007     04CC                     l707:
  1008                           
  1009                           ;KEYPAD1.c: 74:     RD1 = 0;
  1010     04CC  1088               	bcf	8,1	;volatile
  1011     04CD                     l709:
  1012                           
  1013                           ;KEYPAD1.c: 75:     RD2 = 1;
  1014     04CD  1508               	bsf	8,2	;volatile
  1015                           
  1016                           ;KEYPAD1.c: 76:     _delay((unsigned long)((10)*(20000000/4000.0)));
  1017     04CE  3041               	movlw	65
  1018     04CF  00F1               	movwf	??_send_cmd+1
  1019     04D0  30EE               	movlw	238
  1020     04D1  00F0               	movwf	??_send_cmd
  1021     04D2                     u917:
  1022     04D2  0BF0               	decfsz	??_send_cmd,f
  1023     04D3  2CD2               	goto	u917
  1024     04D4  0BF1               	decfsz	??_send_cmd+1,f
  1025     04D5  2CD2               	goto	u917
  1026     04D6  0000               	nop
  1027     04D7                     l711:
  1028                           
  1029                           ;KEYPAD1.c: 77:     RD2 = 0;
  1030     04D7  1283               	bcf	3,5	;RP0=0, select bank0
  1031     04D8  1303               	bcf	3,6	;RP1=0, select bank0
  1032     04D9  1108               	bcf	8,2	;volatile
  1033     04DA                     l62:
  1034     04DA  0008               	return
  1035     04DB                     __end_of_send_cmd:
  1036                           
  1037                           	psect	text6
  1038     05BA                     __ptext6:	
  1039 ;; *************** function _row3 *****************
  1040 ;; Defined at:
  1041 ;;		line 155 in file "KEYPAD1.c"
  1042 ;; Parameters:    Size  Location     Type
  1043 ;;		None
  1044 ;; Auto vars:     Size  Location     Type
  1045 ;;		None
  1046 ;; Return value:  Size  Location     Type
  1047 ;;                  1    wreg      void 
  1048 ;; Registers used:
  1049 ;;		wreg, status,2, status,0, pclath, cstack
  1050 ;; Tracked objects:
  1051 ;;		On entry : 0/0
  1052 ;;		On exit  : 0/0
  1053 ;;		Unchanged: 0/0
  1054 ;; Data sizes:     COMMON   BANK0   BANK1   BANK3   BANK2
  1055 ;;      Params:         0       0       0       0       0
  1056 ;;      Locals:         0       0       0       0       0
  1057 ;;      Temps:          1       0       0       0       0
  1058 ;;      Totals:         1       0       0       0       0
  1059 ;;Total ram usage:        1 bytes
  1060 ;; Hardware stack levels used: 1
  1061 ;; Hardware stack levels required when called: 1
  1062 ;; This function calls:
  1063 ;;		_send_data
  1064 ;; This function is called by:
  1065 ;;		_KEYPAD
  1066 ;; This function uses a non-reentrant model
  1067 ;;
  1068                           
  1069     05BA                     _row3:	
  1070                           ;psect for function _row3
  1071                           
  1072     05BA                     l757:	
  1073                           ;incstack = 0
  1074                           ; Regs used in _row3: [wreg+status,2+status,0+pclath+cstack]
  1075                           
  1076                           
  1077                           ;KEYPAD1.c: 157:   RC1=RC0=RC3 =1;
  1078     05BA  1283               	bcf	3,5	;RP0=0, select bank0
  1079     05BB  1303               	bcf	3,6	;RP1=0, select bank0
  1080     05BC  1587               	bsf	7,3	;volatile
  1081     05BD  1987               	btfsc	7,3	;volatile
  1082     05BE  2DC0               	goto	u371
  1083     05BF  2DC4               	goto	u370
  1084     05C0                     u371:
  1085     05C0  1283               	bcf	3,5	;RP0=0, select bank0
  1086     05C1  1303               	bcf	3,6	;RP1=0, select bank0
  1087     05C2  1407               	bsf	7,0	;volatile
  1088     05C3  2DC7               	goto	u384
  1089     05C4                     u370:
  1090     05C4  1283               	bcf	3,5	;RP0=0, select bank0
  1091     05C5  1303               	bcf	3,6	;RP1=0, select bank0
  1092     05C6  1007               	bcf	7,0	;volatile
  1093     05C7                     u384:
  1094     05C7  1807               	btfsc	7,0	;volatile
  1095     05C8  2DCA               	goto	u381
  1096     05C9  2DCE               	goto	u380
  1097     05CA                     u381:
  1098     05CA  1283               	bcf	3,5	;RP0=0, select bank0
  1099     05CB  1303               	bcf	3,6	;RP1=0, select bank0
  1100     05CC  1487               	bsf	7,1	;volatile
  1101     05CD  2DD1               	goto	u394
  1102     05CE                     u380:
  1103     05CE  1283               	bcf	3,5	;RP0=0, select bank0
  1104     05CF  1303               	bcf	3,6	;RP1=0, select bank0
  1105     05D0  1087               	bcf	7,1	;volatile
  1106     05D1                     u394:
  1107                           
  1108                           ;KEYPAD1.c: 158:   RC2 =0;
  1109     05D1  1107               	bcf	7,2	;volatile
  1110     05D2                     l759:
  1111                           
  1112                           ;KEYPAD1.c: 159:   if(RC4 == RC2)
  1113     05D2  1907               	btfsc	7,2	;volatile
  1114     05D3  2DD5               	goto	u401
  1115     05D4  2DD7               	goto	u400
  1116     05D5                     u401:
  1117     05D5  3001               	movlw	1
  1118     05D6  2DD8               	goto	u402
  1119     05D7                     u400:
  1120     05D7  3000               	movlw	0
  1121     05D8                     u402:
  1122     05D8  00F3               	movwf	??_row3
  1123     05D9  1A07               	btfsc	7,4	;volatile
  1124     05DA  2DDC               	goto	u411
  1125     05DB  2DDE               	goto	u410
  1126     05DC                     u411:
  1127     05DC  3001               	movlw	1
  1128     05DD  2DDF               	goto	u412
  1129     05DE                     u410:
  1130     05DE  3000               	movlw	0
  1131     05DF                     u412:
  1132     05DF  0673               	xorwf	??_row3,w
  1133     05E0  1D03               	skipz
  1134     05E1  2DE3               	goto	u421
  1135     05E2  2DE4               	goto	u420
  1136     05E3                     u421:
  1137     05E3  2DFF               	goto	l765
  1138     05E4                     u420:
  1139     05E4                     l761:
  1140                           
  1141                           ;KEYPAD1.c: 160:   {;KEYPAD1.c: 161:    send_data('1');
  1142     05E4  3031               	movlw	49
  1143     05E5  120A  118A  24B1  120A  118A  	fcall	_send_data
  1144     05EA                     l763:	
  1145                           ;KEYPAD1.c: 162:    while(RC4==RC2);
  1146                           
  1147     05EA  1283               	bcf	3,5	;RP0=0, select bank0
  1148     05EB  1303               	bcf	3,6	;RP1=0, select bank0
  1149     05EC  1907               	btfsc	7,2	;volatile
  1150     05ED  2DEF               	goto	u431
  1151     05EE  2DF1               	goto	u430
  1152     05EF                     u431:
  1153     05EF  3001               	movlw	1
  1154     05F0  2DF2               	goto	u432
  1155     05F1                     u430:
  1156     05F1  3000               	movlw	0
  1157     05F2                     u432:
  1158     05F2  00F3               	movwf	??_row3
  1159     05F3  1A07               	btfsc	7,4	;volatile
  1160     05F4  2DF6               	goto	u441
  1161     05F5  2DF8               	goto	u440
  1162     05F6                     u441:
  1163     05F6  3001               	movlw	1
  1164     05F7  2DF9               	goto	u442
  1165     05F8                     u440:
  1166     05F8  3000               	movlw	0
  1167     05F9                     u442:
  1168     05F9  0673               	xorwf	??_row3,w
  1169     05FA  1903               	skipnz
  1170     05FB  2DFD               	goto	u451
  1171     05FC  2DFE               	goto	u450
  1172     05FD                     u451:
  1173     05FD  2DEA               	goto	l763
  1174     05FE                     u450:
  1175     05FE  2E71               	goto	l137
  1176     05FF                     l765:
  1177     05FF  1907               	btfsc	7,2	;volatile
  1178     0600  2E02               	goto	u461
  1179     0601  2E04               	goto	u460
  1180     0602                     u461:
  1181     0602  3001               	movlw	1
  1182     0603  2E05               	goto	u462
  1183     0604                     u460:
  1184     0604  3000               	movlw	0
  1185     0605                     u462:
  1186     0605  00F3               	movwf	??_row3
  1187     0606  1A87               	btfsc	7,5	;volatile
  1188     0607  2E09               	goto	u471
  1189     0608  2E0B               	goto	u470
  1190     0609                     u471:
  1191     0609  3001               	movlw	1
  1192     060A  2E0C               	goto	u472
  1193     060B                     u470:
  1194     060B  3000               	movlw	0
  1195     060C                     u472:
  1196     060C  0673               	xorwf	??_row3,w
  1197     060D  1D03               	skipz
  1198     060E  2E10               	goto	u481
  1199     060F  2E11               	goto	u480
  1200     0610                     u481:
  1201     0610  2E18               	goto	l769
  1202     0611                     u480:
  1203     0611                     l767:
  1204                           
  1205                           ;KEYPAD1.c: 165:   {;KEYPAD1.c: 166:    send_data('2');
  1206     0611  3032               	movlw	50
  1207     0612  120A  118A  24B1  120A  118A  	fcall	_send_data
  1208                           
  1209                           ;KEYPAD1.c: 168:   }
  1210     0617  2E71               	goto	l137
  1211     0618                     l769:
  1212     0618  1907               	btfsc	7,2	;volatile
  1213     0619  2E1B               	goto	u491
  1214     061A  2E1D               	goto	u490
  1215     061B                     u491:
  1216     061B  3001               	movlw	1
  1217     061C  2E1E               	goto	u492
  1218     061D                     u490:
  1219     061D  3000               	movlw	0
  1220     061E                     u492:
  1221     061E  00F3               	movwf	??_row3
  1222     061F  1B07               	btfsc	7,6	;volatile
  1223     0620  2E22               	goto	u501
  1224     0621  2E24               	goto	u500
  1225     0622                     u501:
  1226     0622  3001               	movlw	1
  1227     0623  2E25               	goto	u502
  1228     0624                     u500:
  1229     0624  3000               	movlw	0
  1230     0625                     u502:
  1231     0625  0673               	xorwf	??_row3,w
  1232     0626  1D03               	skipz
  1233     0627  2E29               	goto	u511
  1234     0628  2E2A               	goto	u510
  1235     0629                     u511:
  1236     0629  2E45               	goto	l775
  1237     062A                     u510:
  1238     062A                     l771:
  1239                           
  1240                           ;KEYPAD1.c: 170:   {;KEYPAD1.c: 171:    send_data('3');
  1241     062A  3033               	movlw	51
  1242     062B  120A  118A  24B1  120A  118A  	fcall	_send_data
  1243     0630                     l773:	
  1244                           ;KEYPAD1.c: 172:    while(RC6 == RC2);
  1245                           
  1246     0630  1283               	bcf	3,5	;RP0=0, select bank0
  1247     0631  1303               	bcf	3,6	;RP1=0, select bank0
  1248     0632  1907               	btfsc	7,2	;volatile
  1249     0633  2E35               	goto	u521
  1250     0634  2E37               	goto	u520
  1251     0635                     u521:
  1252     0635  3001               	movlw	1
  1253     0636  2E38               	goto	u522
  1254     0637                     u520:
  1255     0637  3000               	movlw	0
  1256     0638                     u522:
  1257     0638  00F3               	movwf	??_row3
  1258     0639  1B07               	btfsc	7,6	;volatile
  1259     063A  2E3C               	goto	u531
  1260     063B  2E3E               	goto	u530
  1261     063C                     u531:
  1262     063C  3001               	movlw	1
  1263     063D  2E3F               	goto	u532
  1264     063E                     u530:
  1265     063E  3000               	movlw	0
  1266     063F                     u532:
  1267     063F  0673               	xorwf	??_row3,w
  1268     0640  1903               	skipnz
  1269     0641  2E43               	goto	u541
  1270     0642  2E44               	goto	u540
  1271     0643                     u541:
  1272     0643  2E30               	goto	l773
  1273     0644                     u540:
  1274     0644  2E71               	goto	l137
  1275     0645                     l775:
  1276     0645  1907               	btfsc	7,2	;volatile
  1277     0646  2E48               	goto	u551
  1278     0647  2E4A               	goto	u550
  1279     0648                     u551:
  1280     0648  3001               	movlw	1
  1281     0649  2E4B               	goto	u552
  1282     064A                     u550:
  1283     064A  3000               	movlw	0
  1284     064B                     u552:
  1285     064B  00F3               	movwf	??_row3
  1286     064C  1B87               	btfsc	7,7	;volatile
  1287     064D  2E4F               	goto	u561
  1288     064E  2E51               	goto	u560
  1289     064F                     u561:
  1290     064F  3001               	movlw	1
  1291     0650  2E52               	goto	u562
  1292     0651                     u560:
  1293     0651  3000               	movlw	0
  1294     0652                     u562:
  1295     0652  0673               	xorwf	??_row3,w
  1296     0653  1D03               	skipz
  1297     0654  2E56               	goto	u571
  1298     0655  2E57               	goto	u570
  1299     0656                     u571:
  1300     0656  2E71               	goto	l137
  1301     0657                     u570:
  1302     0657                     l777:
  1303                           
  1304                           ;KEYPAD1.c: 175:   {;KEYPAD1.c: 176:    send_data('-');
  1305     0657  302D               	movlw	45
  1306     0658  120A  118A  24B1  120A  118A  	fcall	_send_data
  1307     065D                     l779:	
  1308                           ;KEYPAD1.c: 177:    while(RC7==RC2);
  1309                           
  1310     065D  1283               	bcf	3,5	;RP0=0, select bank0
  1311     065E  1303               	bcf	3,6	;RP1=0, select bank0
  1312     065F  1907               	btfsc	7,2	;volatile
  1313     0660  2E62               	goto	u581
  1314     0661  2E64               	goto	u580
  1315     0662                     u581:
  1316     0662  3001               	movlw	1
  1317     0663  2E65               	goto	u582
  1318     0664                     u580:
  1319     0664  3000               	movlw	0
  1320     0665                     u582:
  1321     0665  00F3               	movwf	??_row3
  1322     0666  1B87               	btfsc	7,7	;volatile
  1323     0667  2E69               	goto	u591
  1324     0668  2E6B               	goto	u590
  1325     0669                     u591:
  1326     0669  3001               	movlw	1
  1327     066A  2E6C               	goto	u592
  1328     066B                     u590:
  1329     066B  3000               	movlw	0
  1330     066C                     u592:
  1331     066C  0673               	xorwf	??_row3,w
  1332     066D  1903               	skipnz
  1333     066E  2E70               	goto	u601
  1334     066F  2E71               	goto	u600
  1335     0670                     u601:
  1336     0670  2E5D               	goto	l779
  1337     0671                     u600:
  1338     0671                     l137:
  1339     0671  0008               	return
  1340     0672                     __end_of_row3:
  1341                           
  1342                           	psect	text7
  1343     0672                     __ptext7:	
  1344 ;; *************** function _row2 *****************
  1345 ;; Defined at:
  1346 ;;		line 130 in file "KEYPAD1.c"
  1347 ;; Parameters:    Size  Location     Type
  1348 ;;		None
  1349 ;; Auto vars:     Size  Location     Type
  1350 ;;		None
  1351 ;; Return value:  Size  Location     Type
  1352 ;;                  1    wreg      void 
  1353 ;; Registers used:
  1354 ;;		wreg, status,2, status,0, pclath, cstack
  1355 ;; Tracked objects:
  1356 ;;		On entry : 0/0
  1357 ;;		On exit  : 0/0
  1358 ;;		Unchanged: 0/0
  1359 ;; Data sizes:     COMMON   BANK0   BANK1   BANK3   BANK2
  1360 ;;      Params:         0       0       0       0       0
  1361 ;;      Locals:         0       0       0       0       0
  1362 ;;      Temps:          1       0       0       0       0
  1363 ;;      Totals:         1       0       0       0       0
  1364 ;;Total ram usage:        1 bytes
  1365 ;; Hardware stack levels used: 1
  1366 ;; Hardware stack levels required when called: 1
  1367 ;; This function calls:
  1368 ;;		_send_data
  1369 ;; This function is called by:
  1370 ;;		_KEYPAD
  1371 ;; This function uses a non-reentrant model
  1372 ;;
  1373                           
  1374     0672                     _row2:	
  1375                           ;psect for function _row2
  1376                           
  1377     0672                     l733:	
  1378                           ;incstack = 0
  1379                           ; Regs used in _row2: [wreg+status,2+status,0+pclath+cstack]
  1380                           
  1381                           
  1382                           ;KEYPAD1.c: 132:   RC0=RC2=RC3 =1;
  1383     0672  1283               	bcf	3,5	;RP0=0, select bank0
  1384     0673  1303               	bcf	3,6	;RP1=0, select bank0
  1385     0674  1587               	bsf	7,3	;volatile
  1386     0675  1987               	btfsc	7,3	;volatile
  1387     0676  2E78               	goto	u121
  1388     0677  2E7C               	goto	u120
  1389     0678                     u121:
  1390     0678  1283               	bcf	3,5	;RP0=0, select bank0
  1391     0679  1303               	bcf	3,6	;RP1=0, select bank0
  1392     067A  1507               	bsf	7,2	;volatile
  1393     067B  2E7F               	goto	u134
  1394     067C                     u120:
  1395     067C  1283               	bcf	3,5	;RP0=0, select bank0
  1396     067D  1303               	bcf	3,6	;RP1=0, select bank0
  1397     067E  1107               	bcf	7,2	;volatile
  1398     067F                     u134:
  1399     067F  1907               	btfsc	7,2	;volatile
  1400     0680  2E82               	goto	u131
  1401     0681  2E86               	goto	u130
  1402     0682                     u131:
  1403     0682  1283               	bcf	3,5	;RP0=0, select bank0
  1404     0683  1303               	bcf	3,6	;RP1=0, select bank0
  1405     0684  1407               	bsf	7,0	;volatile
  1406     0685  2E89               	goto	u144
  1407     0686                     u130:
  1408     0686  1283               	bcf	3,5	;RP0=0, select bank0
  1409     0687  1303               	bcf	3,6	;RP1=0, select bank0
  1410     0688  1007               	bcf	7,0	;volatile
  1411     0689                     u144:
  1412                           
  1413                           ;KEYPAD1.c: 133:   RC1 =0;
  1414     0689  1087               	bcf	7,1	;volatile
  1415                           
  1416                           ;KEYPAD1.c: 134:   if(RC4 == 0)
  1417     068A  1A07               	btfsc	7,4	;volatile
  1418     068B  2E8D               	goto	u151
  1419     068C  2E8E               	goto	u150
  1420     068D                     u151:
  1421     068D  2EA9               	goto	l739
  1422     068E                     u150:
  1423     068E                     l735:
  1424                           
  1425                           ;KEYPAD1.c: 135:   {;KEYPAD1.c: 136:    send_data('4');
  1426     068E  3034               	movlw	52
  1427     068F  120A  118A  24B1  120A  118A  	fcall	_send_data
  1428     0694                     l737:	
  1429                           ;KEYPAD1.c: 137:    while(RC4==RC1);
  1430                           
  1431     0694  1283               	bcf	3,5	;RP0=0, select bank0
  1432     0695  1303               	bcf	3,6	;RP1=0, select bank0
  1433     0696  1887               	btfsc	7,1	;volatile
  1434     0697  2E99               	goto	u161
  1435     0698  2E9B               	goto	u160
  1436     0699                     u161:
  1437     0699  3001               	movlw	1
  1438     069A  2E9C               	goto	u162
  1439     069B                     u160:
  1440     069B  3000               	movlw	0
  1441     069C                     u162:
  1442     069C  00F3               	movwf	??_row2
  1443     069D  1A07               	btfsc	7,4	;volatile
  1444     069E  2EA0               	goto	u171
  1445     069F  2EA2               	goto	u170
  1446     06A0                     u171:
  1447     06A0  3001               	movlw	1
  1448     06A1  2EA3               	goto	u172
  1449     06A2                     u170:
  1450     06A2  3000               	movlw	0
  1451     06A3                     u172:
  1452     06A3  0673               	xorwf	??_row2,w
  1453     06A4  1903               	skipnz
  1454     06A5  2EA7               	goto	u181
  1455     06A6  2EA8               	goto	u180
  1456     06A7                     u181:
  1457     06A7  2E94               	goto	l737
  1458     06A8                     u180:
  1459     06A8  2F2F               	goto	l118
  1460     06A9                     l739:
  1461     06A9  1887               	btfsc	7,1	;volatile
  1462     06AA  2EAC               	goto	u191
  1463     06AB  2EAE               	goto	u190
  1464     06AC                     u191:
  1465     06AC  3001               	movlw	1
  1466     06AD  2EAF               	goto	u192
  1467     06AE                     u190:
  1468     06AE  3000               	movlw	0
  1469     06AF                     u192:
  1470     06AF  00F3               	movwf	??_row2
  1471     06B0  1A87               	btfsc	7,5	;volatile
  1472     06B1  2EB3               	goto	u201
  1473     06B2  2EB5               	goto	u200
  1474     06B3                     u201:
  1475     06B3  3001               	movlw	1
  1476     06B4  2EB6               	goto	u202
  1477     06B5                     u200:
  1478     06B5  3000               	movlw	0
  1479     06B6                     u202:
  1480     06B6  0673               	xorwf	??_row2,w
  1481     06B7  1D03               	skipz
  1482     06B8  2EBA               	goto	u211
  1483     06B9  2EBB               	goto	u210
  1484     06BA                     u211:
  1485     06BA  2ED6               	goto	l745
  1486     06BB                     u210:
  1487     06BB                     l741:
  1488                           
  1489                           ;KEYPAD1.c: 140:   {;KEYPAD1.c: 141:    send_data('5');
  1490     06BB  3035               	movlw	53
  1491     06BC  120A  118A  24B1  120A  118A  	fcall	_send_data
  1492     06C1                     l743:	
  1493                           ;KEYPAD1.c: 142:    while(RC5 == RC1);
  1494                           
  1495     06C1  1283               	bcf	3,5	;RP0=0, select bank0
  1496     06C2  1303               	bcf	3,6	;RP1=0, select bank0
  1497     06C3  1887               	btfsc	7,1	;volatile
  1498     06C4  2EC6               	goto	u221
  1499     06C5  2EC8               	goto	u220
  1500     06C6                     u221:
  1501     06C6  3001               	movlw	1
  1502     06C7  2EC9               	goto	u222
  1503     06C8                     u220:
  1504     06C8  3000               	movlw	0
  1505     06C9                     u222:
  1506     06C9  00F3               	movwf	??_row2
  1507     06CA  1A87               	btfsc	7,5	;volatile
  1508     06CB  2ECD               	goto	u231
  1509     06CC  2ECF               	goto	u230
  1510     06CD                     u231:
  1511     06CD  3001               	movlw	1
  1512     06CE  2ED0               	goto	u232
  1513     06CF                     u230:
  1514     06CF  3000               	movlw	0
  1515     06D0                     u232:
  1516     06D0  0673               	xorwf	??_row2,w
  1517     06D1  1903               	skipnz
  1518     06D2  2ED4               	goto	u241
  1519     06D3  2ED5               	goto	u240
  1520     06D4                     u241:
  1521     06D4  2EC1               	goto	l743
  1522     06D5                     u240:
  1523     06D5  2F2F               	goto	l118
  1524     06D6                     l745:
  1525     06D6  1887               	btfsc	7,1	;volatile
  1526     06D7  2ED9               	goto	u251
  1527     06D8  2EDB               	goto	u250
  1528     06D9                     u251:
  1529     06D9  3001               	movlw	1
  1530     06DA  2EDC               	goto	u252
  1531     06DB                     u250:
  1532     06DB  3000               	movlw	0
  1533     06DC                     u252:
  1534     06DC  00F3               	movwf	??_row2
  1535     06DD  1B07               	btfsc	7,6	;volatile
  1536     06DE  2EE0               	goto	u261
  1537     06DF  2EE2               	goto	u260
  1538     06E0                     u261:
  1539     06E0  3001               	movlw	1
  1540     06E1  2EE3               	goto	u262
  1541     06E2                     u260:
  1542     06E2  3000               	movlw	0
  1543     06E3                     u262:
  1544     06E3  0673               	xorwf	??_row2,w
  1545     06E4  1D03               	skipz
  1546     06E5  2EE7               	goto	u271
  1547     06E6  2EE8               	goto	u270
  1548     06E7                     u271:
  1549     06E7  2F03               	goto	l751
  1550     06E8                     u270:
  1551     06E8                     l747:
  1552                           
  1553                           ;KEYPAD1.c: 145:   {;KEYPAD1.c: 146:    send_data('6');
  1554     06E8  3036               	movlw	54
  1555     06E9  120A  118A  24B1  120A  118A  	fcall	_send_data
  1556     06EE                     l749:	
  1557                           ;KEYPAD1.c: 147:    while(RC6 == RC1);
  1558                           
  1559     06EE  1283               	bcf	3,5	;RP0=0, select bank0
  1560     06EF  1303               	bcf	3,6	;RP1=0, select bank0
  1561     06F0  1887               	btfsc	7,1	;volatile
  1562     06F1  2EF3               	goto	u281
  1563     06F2  2EF5               	goto	u280
  1564     06F3                     u281:
  1565     06F3  3001               	movlw	1
  1566     06F4  2EF6               	goto	u282
  1567     06F5                     u280:
  1568     06F5  3000               	movlw	0
  1569     06F6                     u282:
  1570     06F6  00F3               	movwf	??_row2
  1571     06F7  1B07               	btfsc	7,6	;volatile
  1572     06F8  2EFA               	goto	u291
  1573     06F9  2EFC               	goto	u290
  1574     06FA                     u291:
  1575     06FA  3001               	movlw	1
  1576     06FB  2EFD               	goto	u292
  1577     06FC                     u290:
  1578     06FC  3000               	movlw	0
  1579     06FD                     u292:
  1580     06FD  0673               	xorwf	??_row2,w
  1581     06FE  1903               	skipnz
  1582     06FF  2F01               	goto	u301
  1583     0700  2F02               	goto	u300
  1584     0701                     u301:
  1585     0701  2EEE               	goto	l749
  1586     0702                     u300:
  1587     0702  2F2F               	goto	l118
  1588     0703                     l751:
  1589     0703  1887               	btfsc	7,1	;volatile
  1590     0704  2F06               	goto	u311
  1591     0705  2F08               	goto	u310
  1592     0706                     u311:
  1593     0706  3001               	movlw	1
  1594     0707  2F09               	goto	u312
  1595     0708                     u310:
  1596     0708  3000               	movlw	0
  1597     0709                     u312:
  1598     0709  00F3               	movwf	??_row2
  1599     070A  1B87               	btfsc	7,7	;volatile
  1600     070B  2F0D               	goto	u321
  1601     070C  2F0F               	goto	u320
  1602     070D                     u321:
  1603     070D  3001               	movlw	1
  1604     070E  2F10               	goto	u322
  1605     070F                     u320:
  1606     070F  3000               	movlw	0
  1607     0710                     u322:
  1608     0710  0673               	xorwf	??_row2,w
  1609     0711  1D03               	skipz
  1610     0712  2F14               	goto	u331
  1611     0713  2F15               	goto	u330
  1612     0714                     u331:
  1613     0714  2F2F               	goto	l118
  1614     0715                     u330:
  1615     0715                     l753:
  1616                           
  1617                           ;KEYPAD1.c: 150:   {;KEYPAD1.c: 151:    send_data('*');
  1618     0715  302A               	movlw	42
  1619     0716  120A  118A  24B1  120A  118A  	fcall	_send_data
  1620     071B                     l755:	
  1621                           ;KEYPAD1.c: 152:    while(RC7==RC1);
  1622                           
  1623     071B  1283               	bcf	3,5	;RP0=0, select bank0
  1624     071C  1303               	bcf	3,6	;RP1=0, select bank0
  1625     071D  1887               	btfsc	7,1	;volatile
  1626     071E  2F20               	goto	u341
  1627     071F  2F22               	goto	u340
  1628     0720                     u341:
  1629     0720  3001               	movlw	1
  1630     0721  2F23               	goto	u342
  1631     0722                     u340:
  1632     0722  3000               	movlw	0
  1633     0723                     u342:
  1634     0723  00F3               	movwf	??_row2
  1635     0724  1B87               	btfsc	7,7	;volatile
  1636     0725  2F27               	goto	u351
  1637     0726  2F29               	goto	u350
  1638     0727                     u351:
  1639     0727  3001               	movlw	1
  1640     0728  2F2A               	goto	u352
  1641     0729                     u350:
  1642     0729  3000               	movlw	0
  1643     072A                     u352:
  1644     072A  0673               	xorwf	??_row2,w
  1645     072B  1903               	skipnz
  1646     072C  2F2E               	goto	u361
  1647     072D  2F2F               	goto	u360
  1648     072E                     u361:
  1649     072E  2F1B               	goto	l755
  1650     072F                     u360:
  1651     072F                     l118:
  1652     072F  0008               	return
  1653     0730                     __end_of_row2:
  1654                           
  1655                           	psect	text8
  1656     055E                     __ptext8:	
  1657 ;; *************** function _row1 *****************
  1658 ;; Defined at:
  1659 ;;		line 104 in file "KEYPAD1.c"
  1660 ;; Parameters:    Size  Location     Type
  1661 ;;		None
  1662 ;; Auto vars:     Size  Location     Type
  1663 ;;		None
  1664 ;; Return value:  Size  Location     Type
  1665 ;;                  1    wreg      void 
  1666 ;; Registers used:
  1667 ;;		wreg, status,2, status,0, pclath, cstack
  1668 ;; Tracked objects:
  1669 ;;		On entry : 0/0
  1670 ;;		On exit  : 0/0
  1671 ;;		Unchanged: 0/0
  1672 ;; Data sizes:     COMMON   BANK0   BANK1   BANK3   BANK2
  1673 ;;      Params:         0       0       0       0       0
  1674 ;;      Locals:         0       0       0       0       0
  1675 ;;      Temps:          0       0       0       0       0
  1676 ;;      Totals:         0       0       0       0       0
  1677 ;;Total ram usage:        0 bytes
  1678 ;; Hardware stack levels used: 1
  1679 ;; Hardware stack levels required when called: 1
  1680 ;; This function calls:
  1681 ;;		_send_data
  1682 ;; This function is called by:
  1683 ;;		_KEYPAD
  1684 ;; This function uses a non-reentrant model
  1685 ;;
  1686                           
  1687     055E                     _row1:	
  1688                           ;psect for function _row1
  1689                           
  1690     055E                     l723:	
  1691                           ;incstack = 0
  1692                           ; Regs used in _row1: [wreg+status,2+status,0+pclath+cstack]
  1693                           
  1694                           
  1695                           ;KEYPAD1.c: 106:     RC0=0;
  1696     055E  1283               	bcf	3,5	;RP0=0, select bank0
  1697     055F  1303               	bcf	3,6	;RP1=0, select bank0
  1698     0560  1007               	bcf	7,0	;volatile
  1699                           
  1700                           ;KEYPAD1.c: 107:     RC1=RC2=RC3 = 1;
  1701     0561  1587               	bsf	7,3	;volatile
  1702     0562  1987               	btfsc	7,3	;volatile
  1703     0563  2D65               	goto	u11
  1704     0564  2D69               	goto	u10
  1705     0565                     u11:
  1706     0565  1283               	bcf	3,5	;RP0=0, select bank0
  1707     0566  1303               	bcf	3,6	;RP1=0, select bank0
  1708     0567  1507               	bsf	7,2	;volatile
  1709     0568  2D6C               	goto	u24
  1710     0569                     u10:
  1711     0569  1283               	bcf	3,5	;RP0=0, select bank0
  1712     056A  1303               	bcf	3,6	;RP1=0, select bank0
  1713     056B  1107               	bcf	7,2	;volatile
  1714     056C                     u24:
  1715     056C  1907               	btfsc	7,2	;volatile
  1716     056D  2D6F               	goto	u21
  1717     056E  2D73               	goto	u20
  1718     056F                     u21:
  1719     056F  1283               	bcf	3,5	;RP0=0, select bank0
  1720     0570  1303               	bcf	3,6	;RP1=0, select bank0
  1721     0571  1487               	bsf	7,1	;volatile
  1722     0572  2D76               	goto	u34
  1723     0573                     u20:
  1724     0573  1283               	bcf	3,5	;RP0=0, select bank0
  1725     0574  1303               	bcf	3,6	;RP1=0, select bank0
  1726     0575  1087               	bcf	7,1	;volatile
  1727     0576                     u34:
  1728                           
  1729                           ;KEYPAD1.c: 108:     if(RC4 == 0)
  1730     0576  1A07               	btfsc	7,4	;volatile
  1731     0577  2D79               	goto	u41
  1732     0578  2D7A               	goto	u40
  1733     0579                     u41:
  1734     0579  2D87               	goto	l77
  1735     057A                     u40:
  1736     057A                     l725:
  1737                           
  1738                           ;KEYPAD1.c: 109:     {;KEYPAD1.c: 110:         send_data('7');
  1739     057A  3037               	movlw	55
  1740     057B  120A  118A  24B1  120A  118A  	fcall	_send_data
  1741     0580                     l78:	
  1742                           ;KEYPAD1.c: 111:         while(RC4==0);
  1743                           
  1744     0580  1283               	bcf	3,5	;RP0=0, select bank0
  1745     0581  1303               	bcf	3,6	;RP1=0, select bank0
  1746     0582  1E07               	btfss	7,4	;volatile
  1747     0583  2D85               	goto	u51
  1748     0584  2D86               	goto	u50
  1749     0585                     u51:
  1750     0585  2D80               	goto	l78
  1751     0586                     u50:
  1752     0586  2DB9               	goto	l96
  1753     0587                     l77:	
  1754                           ;KEYPAD1.c: 113:      else if(RC5 == 0)
  1755                           
  1756     0587  1A87               	btfsc	7,5	;volatile
  1757     0588  2D8A               	goto	u61
  1758     0589  2D8B               	goto	u60
  1759     058A                     u61:
  1760     058A  2D98               	goto	l82
  1761     058B                     u60:
  1762     058B                     l727:
  1763                           
  1764                           ;KEYPAD1.c: 114:   {;KEYPAD1.c: 115:    send_data('8');
  1765     058B  3038               	movlw	56
  1766     058C  120A  118A  24B1  120A  118A  	fcall	_send_data
  1767     0591                     l83:	
  1768                           ;KEYPAD1.c: 116:    while(RC5 == 0);
  1769                           
  1770     0591  1283               	bcf	3,5	;RP0=0, select bank0
  1771     0592  1303               	bcf	3,6	;RP1=0, select bank0
  1772     0593  1E87               	btfss	7,5	;volatile
  1773     0594  2D96               	goto	u71
  1774     0595  2D97               	goto	u70
  1775     0596                     u71:
  1776     0596  2D91               	goto	l83
  1777     0597                     u70:
  1778     0597  2DB9               	goto	l96
  1779     0598                     l82:	
  1780                           ;KEYPAD1.c: 118:   else if(RC6 == 0)
  1781                           
  1782     0598  1B07               	btfsc	7,6	;volatile
  1783     0599  2D9B               	goto	u81
  1784     059A  2D9C               	goto	u80
  1785     059B                     u81:
  1786     059B  2DA9               	goto	l87
  1787     059C                     u80:
  1788     059C                     l729:
  1789                           
  1790                           ;KEYPAD1.c: 119:   {;KEYPAD1.c: 120:    send_data('9');
  1791     059C  3039               	movlw	57
  1792     059D  120A  118A  24B1  120A  118A  	fcall	_send_data
  1793     05A2                     l88:	
  1794                           ;KEYPAD1.c: 121:    while(RC6 == 0);
  1795                           
  1796     05A2  1283               	bcf	3,5	;RP0=0, select bank0
  1797     05A3  1303               	bcf	3,6	;RP1=0, select bank0
  1798     05A4  1F07               	btfss	7,6	;volatile
  1799     05A5  2DA7               	goto	u91
  1800     05A6  2DA8               	goto	u90
  1801     05A7                     u91:
  1802     05A7  2DA2               	goto	l88
  1803     05A8                     u90:
  1804     05A8  2DB9               	goto	l96
  1805     05A9                     l87:	
  1806                           ;KEYPAD1.c: 123:   else if(RC7 == 0)
  1807                           
  1808     05A9  1B87               	btfsc	7,7	;volatile
  1809     05AA  2DAC               	goto	u101
  1810     05AB  2DAD               	goto	u100
  1811     05AC                     u101:
  1812     05AC  2DB9               	goto	l96
  1813     05AD                     u100:
  1814     05AD                     l731:
  1815                           
  1816                           ;KEYPAD1.c: 124:   {;KEYPAD1.c: 125:    send_data('/');
  1817     05AD  302F               	movlw	47
  1818     05AE  120A  118A  24B1  120A  118A  	fcall	_send_data
  1819     05B3                     l93:	
  1820                           ;KEYPAD1.c: 126:    while(RC7==0);
  1821                           
  1822     05B3  1283               	bcf	3,5	;RP0=0, select bank0
  1823     05B4  1303               	bcf	3,6	;RP1=0, select bank0
  1824     05B5  1F87               	btfss	7,7	;volatile
  1825     05B6  2DB8               	goto	u111
  1826     05B7  2DB9               	goto	u110
  1827     05B8                     u111:
  1828     05B8  2DB3               	goto	l93
  1829     05B9                     u110:
  1830     05B9                     l96:
  1831     05B9  0008               	return
  1832     05BA                     __end_of_row1:
  1833                           
  1834                           	psect	text9
  1835     04B1                     __ptext9:	
  1836 ;; *************** function _send_data *****************
  1837 ;; Defined at:
  1838 ;;		line 79 in file "KEYPAD1.c"
  1839 ;; Parameters:    Size  Location     Type
  1840 ;;  b               1    wreg     unsigned char 
  1841 ;; Auto vars:     Size  Location     Type
  1842 ;;  b               1    2[COMMON] unsigned char 
  1843 ;; Return value:  Size  Location     Type
  1844 ;;                  1    wreg      void 
  1845 ;; Registers used:
  1846 ;;		wreg
  1847 ;; Tracked objects:
  1848 ;;		On entry : 0/0
  1849 ;;		On exit  : 0/0
  1850 ;;		Unchanged: 0/0
  1851 ;; Data sizes:     COMMON   BANK0   BANK1   BANK3   BANK2
  1852 ;;      Params:         0       0       0       0       0
  1853 ;;      Locals:         1       0       0       0       0
  1854 ;;      Temps:          2       0       0       0       0
  1855 ;;      Totals:         3       0       0       0       0
  1856 ;;Total ram usage:        3 bytes
  1857 ;; Hardware stack levels used: 1
  1858 ;; This function calls:
  1859 ;;		Nothing
  1860 ;; This function is called by:
  1861 ;;		_display_string
  1862 ;;		_row1
  1863 ;;		_row2
  1864 ;;		_row3
  1865 ;;		_row4
  1866 ;; This function uses a non-reentrant model
  1867 ;;
  1868                           
  1869     04B1                     _send_data:	
  1870                           ;psect for function _send_data
  1871                           
  1872                           
  1873                           ;incstack = 0
  1874                           ; Regs used in _send_data: [wreg]
  1875                           ;send_data@b stored from wreg
  1876     04B1  00F2               	movwf	send_data@b
  1877     04B2                     l713:
  1878                           
  1879                           ;KEYPAD1.c: 79: void send_data(char b);KEYPAD1.c: 80: {;KEYPAD1.c: 81:     PORTB = b;
  1880     04B2  0872               	movf	send_data@b,w
  1881     04B3  1283               	bcf	3,5	;RP0=0, select bank0
  1882     04B4  1303               	bcf	3,6	;RP1=0, select bank0
  1883     04B5  0086               	movwf	6	;volatile
  1884     04B6                     l715:
  1885                           
  1886                           ;KEYPAD1.c: 82:     RD0 = 1;
  1887     04B6  1408               	bsf	8,0	;volatile
  1888     04B7                     l717:
  1889                           
  1890                           ;KEYPAD1.c: 83:     RD1 = 0;
  1891     04B7  1088               	bcf	8,1	;volatile
  1892     04B8                     l719:
  1893                           
  1894                           ;KEYPAD1.c: 84:     RD2 = 1;
  1895     04B8  1508               	bsf	8,2	;volatile
  1896                           
  1897                           ;KEYPAD1.c: 85:     _delay((unsigned long)((10)*(20000000/4000.0)));
  1898     04B9  3041               	movlw	65
  1899     04BA  00F1               	movwf	??_send_data+1
  1900     04BB  30EE               	movlw	238
  1901     04BC  00F0               	movwf	??_send_data
  1902     04BD                     u927:
  1903     04BD  0BF0               	decfsz	??_send_data,f
  1904     04BE  2CBD               	goto	u927
  1905     04BF  0BF1               	decfsz	??_send_data+1,f
  1906     04C0  2CBD               	goto	u927
  1907     04C1  0000               	nop
  1908     04C2                     l721:
  1909                           
  1910                           ;KEYPAD1.c: 86:     RD2 = 0;
  1911     04C2  1283               	bcf	3,5	;RP0=0, select bank0
  1912     04C3  1303               	bcf	3,6	;RP1=0, select bank0
  1913     04C4  1108               	bcf	8,2	;volatile
  1914     04C5                     l65:
  1915     04C5  0008               	return
  1916     04C6                     __end_of_send_data:
  1917     0002                     ___latbits      equ	2
  1918     007E                     btemp           set	126	;btemp
  1919     007E                     btemp0          set	126
  1920     007F                     btemp1          set	127
  1921     007E                     wtemp0          set	126
  1922     007F                     wtemp0a         set	127
  1923     007F                     ttemp0a         set	127
  1924     0080                     ltemp0a         set	128
  1925                           
  1926                           	psect	config
  1927                           
  1928                           ;Config register CONFIG @ 0x2007
  1929                           ;	Oscillator Selection bits
  1930                           ;	FOSC = HS, HS oscillator
  1931                           ;	Watchdog Timer Enable bit
  1932                           ;	WDTE = OFF, WDT disabled
  1933                           ;	Power-up Timer Enable bit
  1934                           ;	PWRTE = OFF, PWRT disabled
  1935                           ;	Brown-out Reset Enable bit
  1936                           ;	BOREN = OFF, BOR disabled
  1937                           ;	Low-Voltage (Single-Supply) In-Circuit Serial Programming Enable bit
  1938                           ;	LVP = OFF, RB3 is digital I/O, HV on MCLR must be used for programming
  1939                           ;	Data EEPROM Memory Code Protection bit
  1940                           ;	CPD = OFF, Data EEPROM code protection off
  1941                           ;	Flash Program Memory Write Enable bits
  1942                           ;	WRT = OFF, Write protection off; all program memory may be written to by EECON control
  1943                           ;	In-Circuit Debugger Mode bit
  1944                           ;	DEBUG = 0x1, unprogrammed default
  1945                           ;	Flash Program Memory Code Protection bit
  1946                           ;	CP = OFF, Code protection off
  1947     2007                     	org	8199
  1948     2007  3F3A               	dw	16186

Data Sizes:
    Strings     17
    Constant    0
    Data        0
    BSS         0
    Persistent  0
    Stack       0

Auto Spaces:
    Space          Size  Autos    Used
    COMMON           14      6       6
    BANK0            80      0       0
    BANK1            80      0       0
    BANK3            96      0       0
    BANK2            96      0       0

Pointer List with Targets:

    display_string@msg	PTR unsigned char  size(1) Largest target is 17
		 -> STR_1(CODE[17]), 


Critical Paths under _main in COMMON

    _main->_display_string
    _lcd_init->_send_cmd
    _display_string->_send_data
    _KEYPAD->_row2
    _KEYPAD->_row3
    _KEYPAD->_row4
    _row4->_send_cmd
    _row4->_send_data
    _row3->_send_data
    _row2->_send_data
    _row1->_send_data

Critical Paths under _main in BANK0

    None.

Critical Paths under _main in BANK1

    None.

Critical Paths under _main in BANK3

    None.

Critical Paths under _main in BANK2

    None.

Call Graph Tables:

 ---------------------------------------------------------------------------------
 (Depth) Function   	        Calls       Base Space   Used Autos Params    Refs
 ---------------------------------------------------------------------------------
 (0) _main                                                 2     2      0     166
                                              4 COMMON     2     2      0
                             _KEYPAD
                     _display_string
                           _lcd_init
                           _send_cmd
 ---------------------------------------------------------------------------------
 (1) _lcd_init                                             0     0      0      15
                           _send_cmd
 ---------------------------------------------------------------------------------
 (1) _display_string                                       1     0      1      61
                                              3 COMMON     1     0      1
                          _send_data
 ---------------------------------------------------------------------------------
 (1) _KEYPAD                                               0     0      0      75
                               _row1
                               _row2
                               _row3
                               _row4
 ---------------------------------------------------------------------------------
 (2) _row4                                                 1     1      0      30
                                              3 COMMON     1     1      0
                           _send_cmd
                          _send_data
 ---------------------------------------------------------------------------------
 (3) _send_cmd                                             3     3      0      15
                                              0 COMMON     3     3      0
 ---------------------------------------------------------------------------------
 (2) _row3                                                 1     1      0      15
                                              3 COMMON     1     1      0
                          _send_data
 ---------------------------------------------------------------------------------
 (2) _row2                                                 1     1      0      15
                                              3 COMMON     1     1      0
                          _send_data
 ---------------------------------------------------------------------------------
 (2) _row1                                                 0     0      0      15
                          _send_data
 ---------------------------------------------------------------------------------
 (3) _send_data                                            3     3      0      15
                                              0 COMMON     3     3      0
 ---------------------------------------------------------------------------------
 Estimated maximum stack depth 3
 ---------------------------------------------------------------------------------

 Call Graph Graphs:

 _main (ROOT)
   _KEYPAD
     _row1
       _send_data
     _row2
       _send_data
     _row3
       _send_data
     _row4
       _send_cmd
       _send_data
   _display_string
     _send_data
   _lcd_init
     _send_cmd
   _send_cmd

Address spaces:
Name               Size   Autos  Total    Usage
BITCOMMON           14      0       0      0.0%
BITBANK0            80      0       0      0.0%
BITBANK1            80      0       0      0.0%
BITBANK3            96      0       0      0.0%
BITBANK2            96      0       0      0.0%
COMMON              14      6       6     42.9%
BANK0               80      0       0      0.0%
BANK1               80      0       0      0.0%
BANK3               96      0       0      0.0%
BANK2               96      0       0      0.0%
STACK                0      0       0      0.0%
DATA                 0      0       6      0.0%


Microchip Technology PIC Macro Assembler V3.10 build 20250813170317 
Symbol Table                                                                                   Tue Nov  4 12:16:28 2025

                      pc 0002                       l62 04DA                       l71 052A  
                     l65 04C5                       l82 0598                       l74 050E  
                     l83 0591                       l59 04F3                       l93 05B3  
                     l77 0587                       l78 0580                       l87 05A9  
                     l88 05A2                       l96 05B9                       u10 0569  
                     u11 0565                       u20 0573                       u21 056F  
                     u40 057A                       u24 056C                       u41 0579  
                     u50 0586                       u34 0576                       u51 0585  
                     u60 058B                       u61 058A                       u70 0597  
                     u71 0596                       u80 059C                       u81 059B  
                     u90 05A8                       u91 05A7                       fsr 0004  
                    l118 072F                      l137 0671                      l159 07FB  
                    l711 04D7                      l703 04C7                      l721 04C2  
                    l713 04B2                      l705 04CB                      l801 07CF  
                    l715 04B6                      l731 05AD                      l723 055E  
                    l707 04CC                      l803 07E1                      l717 04B7  
                    l725 057A                      l741 06BB                      l733 0672  
                    l709 04CD                      l805 07E7                      l719 04B8  
                    l727 058B                      l751 0703                      l743 06C1  
                    l735 068E                      l807 04DB                      l729 059C  
                    l753 0715                      l745 06D6                      l737 0694  
                    l761 05E4                      l817 04F4                      l841 051C  
                    l755 071B                      l747 06E8                      l739 06A9  
                    l771 062A                      l763 05EA                      l819 04FA  
                    l843 051E                      l851 0539                      l749 06EE  
                    l773 0630                      l765 05FF                      l757 05BA  
                    l781 0730                      l837 050F                      l853 053F  
                    l845 052B                      l775 0645                      l767 0611  
                    l759 05D2                      l791 0787                      l783 0748  
                    l839 0510                      l855 0546                      l847 0531  
                    l777 0657                      l769 0618                      l793 078D  
                    l785 075A                      l857 054F                      l849 0534  
                    l779 065D                      l795 07A2                      l787 0760  
                    l859 0555                      l797 07B4                      l789 0775  
                    l799 07BA                      _RC0 0038                      _RC1 0039  
                    _RD0 0040                      _RC2 003A                      _RD1 0041  
                    _RC3 003B                      _RD2 0042                      _RC4 003C  
                    _RC5 003D                      u100 05AD                      _RC6 003E  
                    u101 05AC                      _RC7 003F                      u110 05B9  
                    u111 05B8                      u200 06B5                      u120 067C  
                    u201 06B3                      u121 0678                      u210 06BB  
                    u202 06B6                      u130 0686                      u211 06BA  
                    u131 0682                      u300 0702                      u220 06C8  
                    u301 0701                      u221 06C6                      u310 0708  
                    u230 06CF                      u222 06C9                      u150 068E  
                    u134 067F                      u311 0706                      u231 06CD  
                    u151 068D                      u320 070F                      u312 0709  
                    u240 06D5                      u232 06D0                      u160 069B  
                    u144 0689                      u400 05D7                      u321 070D  
                    u241 06D4                      u161 0699                      u401 05D5  
                    u330 0715                      u322 0710                      u250 06DB  
                    u170 06A2                      u162 069C                      u410 05DE  
                    u402 05D8                      u331 0714                      u251 06D9  
                    u171 06A0                      u411 05DC                      u340 0722  
                    u260 06E2                      u252 06DC                      u180 06A8  
                    u172 06A3                      u500 0624                      u420 05E4  
                    u412 05DF                      u341 0720                      u261 06E0  
                    u181 06A7                      u501 0622                      u421 05E3  
                    u350 0729                      u342 0723                      u270 06E8  
                    u262 06E3                      u190 06AE                      u510 062A  
                    u502 0625                      u430 05F1                      u351 0727  
                    u271 06E7                      u191 06AC                      u511 0629  
                    u431 05EF                      u360 072F                      u352 072A  
                    u280 06F5                      u192 06AF                      u600 0671  
                    u520 0637                      u440 05F8                      u432 05F2  
                    u361 072E                      u281 06F3                      u601 0670  
                    u521 0635                      u441 05F6                      u290 06FC  
                    u282 06F6                      u530 063E                      u522 0638  
                    u450 05FE                      u442 05F9                      u370 05C4  
                    u610 073A                      u291 06FA                      u531 063C  
                    u451 05FD                      u371 05C0                      u611 0736  
                    u292 06FD                      u540 0644                      u532 063F  
                    u460 0604                      u380 05CE                      u700 077A  
                    u620 0744                      u541 0643                      u461 0602  
                    u381 05CA                      u701 0778                      u621 0740  
                    u550 064A                      u470 060B                      u462 0605  
                    u710 0781                      u702 077B                      u551 0648  
                    u471 0609                      u711 077F                      u560 0651  
                    u552 064B                      u480 0611                      u472 060C  
                    u384 05C7                      u800 07C8                      u720 0787  
                    u712 0782                      u640 074D                      u624 073D  
                    u561 064F                      u481 0610                      u801 07C6  
                    u721 0786                      u641 074B                      u570 0657  
                    u562 0652                      u490 061D                      u394 05D1  
                    u810 07CE                      u802 07C9                      u730 0794  
                    u650 0754                      u642 074E                      u634 0747  
                    u571 0656                      u491 061B                      u811 07CD  
                    u731 0792                      u651 0752                      u580 0664  
                    u492 061E                      u820 07D4                      u740 079B  
                    u732 0795                      u660 075A                      u652 0755  
                    u581 0662                      u821 07D2                      u741 0799  
                    u661 0759                      u590 066B                      u582 0665  
                    u830 07DB                      u822 07D5                      u750 07A1  
                    u742 079C                      u670 0767                      u591 0669  
                    u831 07D9                      u751 07A0                      u671 0765  
                    u592 066C                      u840 07E1                      u832 07DC  
                    u760 07A7                      u680 076E                      u672 0768  
                    u841 07E0                      u761 07A5                      u681 076C  
                    u850 07EE                      u770 07AE                      u762 07A8  
                    u690 0774                      u682 076F                      u851 07EC  
                    u771 07AC                      u691 0773                      u907 054A  
                    u860 07F5                      u852 07EF                      u780 07B4  
                    u772 07AF                      u917 04D2                      u861 07F3  
                    u781 07B3                      u870 07FB                      u862 07F6  
                    u790 07C1                      u927 04BD                      u871 07FA  
                    u791 07BF                      u792 07C2                      u890 052A  
                    u891 0529                      fsr0 0004   __end_of_display_string 052B  
                   STR_1 0009                     _main 052B                     _row1 055E  
                   _row2 0672                     _row3 05BA                     _row4 0730  
                   btemp 007E                     start 0000                    ?_main 0070  
                  ?_row1 0070                    ?_row2 0070                    ?_row3 0070  
                  ?_row4 0070                    _PORTB 0006                    _TRISB 0086  
                  _TRISC 0087                    _TRISD 0088          ?_display_string 0073  
                  btemp0 007E                    btemp1 007F                    pclath 000A  
                  status 0003                    wtemp0 007E          __initialization 07FC  
           __end_of_main 055E             __end_of_row1 05BA             __end_of_row2 0730  
           __end_of_row3 0672             __end_of_row4 07FC                   ??_main 0074  
                 ??_row1 0073                   ??_row2 0073                   ??_row3 0073  
                 ??_row4 0073                   _KEYPAD 04F4         __end_of_lcd_init 04F4  
       __end_of_send_cmd 04DB                   ltemp0a 0080                   ttemp0a 007F  
                 wtemp0a 007F  __end_of__initialization 07FC           __pcstackCOMMON 0070  
                ?_KEYPAD 0070               __pmaintext 052B         ??_display_string 0074  
              ?_lcd_init 0070               __stringtab 0003                ?_send_cmd 0070  
                __ptext1 04DB                  __ptext2 050F                  __ptext3 04F4  
                __ptext4 0730                  __ptext5 04C6                  __ptext6 05BA  
                __ptext7 0672                  __ptext8 055E                  __ptext9 04B1  
             ??_lcd_init 0073     end_of_initialization 07FC        __end_of_send_data 04C6  
             ??_send_cmd 0070           __end_of_KEYPAD 050F      start_initialization 07FC  
               ??_KEYPAD 0074                ___latbits 0002                __pstrings 0003  
             send_data@b 0072                _send_data 04B1              __stringbase 0008  
             ?_send_data 0070       __end_of__stringtab 0009                 _lcd_init 04DB  
              send_cmd@a 0072                 _send_cmd 04C6        display_string@msg 0073  
            ??_send_data 0070                stringcode 0003                 stringdir 0003  
               stringtab 0003           _display_string 050F  
