

Microchip MPLAB XC8 Assembler V3.10 build 20250813170317 
                                                                                               Wed Dec 17 12:45:05 2025

Microchip MPLAB XC8 C Compiler v3.10 (Free license) build 20250813170317 Og1 
     1                           	processor	16F877A
     2                           	pagewidth 120
     3                           	opt	flic
     4                           	psect	strings,global,class=STRING,space=0,delta=2,noexec
     5                           	psect	cinit,global,class=CODE,space=0,merge=1,delta=2
     6                           	psect	bssBANK0,global,class=BANK0,space=1,delta=1,noexec
     7                           	psect	bssBANK1,global,class=BANK1,space=1,delta=1,noexec
     8                           	psect	clrtext,global,class=CODE,space=0,delta=2
     9                           	psect	cstackCOMMON,global,class=COMMON,space=1,delta=1,noexec
    10                           	psect	cstackBANK0,global,class=BANK0,space=1,delta=1,noexec
    11                           	psect	maintext,global,class=CODE,space=0,split=1,delta=2
    12                           	psect	text1,local,class=CODE,space=0,merge=1,delta=2,group=3
    13                           	psect	text2,local,class=CODE,space=0,merge=1,delta=2,group=1
    14                           	psect	text3,local,class=CODE,space=0,merge=1,delta=2,group=1
    15                           	psect	text4,local,class=CODE,space=0,merge=1,delta=2,group=3
    16                           	psect	text5,local,class=CODE,space=0,merge=1,delta=2,group=3
    17                           	psect	text6,local,class=CODE,space=0,merge=1,delta=2,group=3
    18                           	psect	text7,local,class=CODE,space=0,merge=1,delta=2,group=2
    19                           	psect	text8,local,class=CODE,space=0,merge=1,delta=2,group=2
    20                           	psect	text9,local,class=CODE,space=0,merge=1,delta=2
    21                           	psect	text10,local,class=CODE,space=0,merge=1,delta=2
    22                           	psect	text11,local,class=CODE,space=0,merge=1,delta=2
    23                           	psect	text12,local,class=CODE,space=0,merge=1,delta=2
    24                           	psect	text13,local,class=CODE,space=0,merge=1,delta=2
    25                           	psect	text14,local,class=CODE,space=0,merge=1,delta=2
    26                           	psect	text15,local,class=CODE,space=0,merge=1,delta=2
    27                           	psect	text16,local,class=CODE,space=0,merge=1,delta=2
    28                           	psect	text17,local,class=CODE,space=0,merge=1,delta=2
    29                           	psect	config,global,abs,ovrld,class=CONFIG,space=4,delta=2,noexec
    30                           	dabs	1,0x7E,2
    31     0000                     
    32                           ; Generated 12/10/2023 GMT
    33                           ; 
    34                           ; Copyright © 2023, Microchip Technology Inc. and its subsidiaries ("Microchip")
    35                           ; All rights reserved.
    36                           ; 
    37                           ; This software is developed by Microchip Technology Inc. and its subsidiaries ("Microch
      +                          ip").
    38                           ; 
    39                           ; Redistribution and use in source and binary forms, with or without modification, are
    40                           ; permitted provided that the following conditions are met:
    41                           ; 
    42                           ;     1. Redistributions of source code must retain the above copyright notice, this lis
      +                          t of
    43                           ;        conditions and the following disclaimer.
    44                           ; 
    45                           ;     2. Redistributions in binary form must reproduce the above copyright notice, this 
      +                          list
    46                           ;        of conditions and the following disclaimer in the documentation and/or other
    47                           ;        materials provided with the distribution. Publication is not required when
    48                           ;        this file is used in an embedded application.
    49                           ; 
    50                           ;     3. Microchip's name may not be used to endorse or promote products derived from th
      +                          is
    51                           ;        software without specific prior written permission.
    52                           ; 
    53                           ; THIS SOFTWARE IS PROVIDED BY MICROCHIP "AS IS" AND ANY EXPRESS OR IMPLIED WARRANTIES,
    54                           ; INCLUDING, BUT NOT LIMITED TO, THE IMPLIED WARRANTIES OF MERCHANTABILITY AND FITNESS F
      +                          OR
    55                           ; PURPOSE ARE DISCLAIMED.  IN NO EVENT SHALL MICROCHIP BE LIABLE FOR ANY DIRECT, INDIREC
      +                          T,
    56                           ; INCIDENTAL, SPECIAL, EXEMPLARY, OR CONSEQUENTIAL DAMAGES (INCLUDING BUT NOT LIMITED TO
    57                           ; PROCUREMENT OF SUBSTITUTE GOODS OR SERVICES; LOSS OF USE, DATA OR PROFITS; OR BUSINESS
    58                           ; INTERRUPTION) HOWSOEVER CAUSED AND ON ANY THEORY OF LIABILITY, WHETHER IN CONTRACT, ST
      +                          RICT
    59                           ; LIABILITY, OR TORT (INCLUDING NEGLIGENCE OR OTHERWISE) ARISING IN ANY WAY OUT OF THE U
      +                          SE OF
    60                           ; THIS SOFTWARE, EVEN IF ADVISED OF THE POSSIBILITY OF SUCH DAMAGE.
    61                           ; 
    62                           ; 
    63                           ; Code-generator required, PIC16F877A Definitions
    64                           ; 
    65                           ; SFR Addresses
    66     0004                     fsr             equ	4
    67     0004                     fsr0            equ	4
    68     0000                     indf            equ	0
    69     0000                     indf0           equ	0
    70     0002                     pc              equ	2
    71     0002                     pcl             equ	2
    72     000A                     pclath          equ	10
    73     0003                     status          equ	3
    74     0000                     INDF            equ	0	;# 
    75     0001                     TMR0            equ	1	;# 
    76     0002                     PCL             equ	2	;# 
    77     0003                     STATUS          equ	3	;# 
    78     0004                     FSR             equ	4	;# 
    79     0005                     PORTA           equ	5	;# 
    80     0006                     PORTB           equ	6	;# 
    81     0007                     PORTC           equ	7	;# 
    82     0008                     PORTD           equ	8	;# 
    83     0009                     PORTE           equ	9	;# 
    84     000A                     PCLATH          equ	10	;# 
    85     000B                     INTCON          equ	11	;# 
    86     000C                     PIR1            equ	12	;# 
    87     000D                     PIR2            equ	13	;# 
    88     000E                     TMR1            equ	14	;# 
    89     000E                     TMR1L           equ	14	;# 
    90     000F                     TMR1H           equ	15	;# 
    91     0010                     T1CON           equ	16	;# 
    92     0011                     TMR2            equ	17	;# 
    93     0012                     T2CON           equ	18	;# 
    94     0013                     SSPBUF          equ	19	;# 
    95     0014                     SSPCON          equ	20	;# 
    96     0015                     CCPR1           equ	21	;# 
    97     0015                     CCPR1L          equ	21	;# 
    98     0016                     CCPR1H          equ	22	;# 
    99     0017                     CCP1CON         equ	23	;# 
   100     0018                     RCSTA           equ	24	;# 
   101     0019                     TXREG           equ	25	;# 
   102     001A                     RCREG           equ	26	;# 
   103     001B                     CCPR2           equ	27	;# 
   104     001B                     CCPR2L          equ	27	;# 
   105     001C                     CCPR2H          equ	28	;# 
   106     001D                     CCP2CON         equ	29	;# 
   107     001E                     ADRESH          equ	30	;# 
   108     001F                     ADCON0          equ	31	;# 
   109     0081                     OPTION_REG      equ	129	;# 
   110     0085                     TRISA           equ	133	;# 
   111     0086                     TRISB           equ	134	;# 
   112     0087                     TRISC           equ	135	;# 
   113     0088                     TRISD           equ	136	;# 
   114     0089                     TRISE           equ	137	;# 
   115     008C                     PIE1            equ	140	;# 
   116     008D                     PIE2            equ	141	;# 
   117     008E                     PCON            equ	142	;# 
   118     0091                     SSPCON2         equ	145	;# 
   119     0092                     PR2             equ	146	;# 
   120     0093                     SSPADD          equ	147	;# 
   121     0094                     SSPSTAT         equ	148	;# 
   122     0098                     TXSTA           equ	152	;# 
   123     0099                     SPBRG           equ	153	;# 
   124     009C                     CMCON           equ	156	;# 
   125     009D                     CVRCON          equ	157	;# 
   126     009E                     ADRESL          equ	158	;# 
   127     009F                     ADCON1          equ	159	;# 
   128     010C                     EEDATA          equ	268	;# 
   129     010D                     EEADR           equ	269	;# 
   130     010E                     EEDATH          equ	270	;# 
   131     010F                     EEADRH          equ	271	;# 
   132     018C                     EECON1          equ	396	;# 
   133     018D                     EECON2          equ	397	;# 
   134     0000                     INDF            equ	0	;# 
   135     0001                     TMR0            equ	1	;# 
   136     0002                     PCL             equ	2	;# 
   137     0003                     STATUS          equ	3	;# 
   138     0004                     FSR             equ	4	;# 
   139     0005                     PORTA           equ	5	;# 
   140     0006                     PORTB           equ	6	;# 
   141     0007                     PORTC           equ	7	;# 
   142     0008                     PORTD           equ	8	;# 
   143     0009                     PORTE           equ	9	;# 
   144     000A                     PCLATH          equ	10	;# 
   145     000B                     INTCON          equ	11	;# 
   146     000C                     PIR1            equ	12	;# 
   147     000D                     PIR2            equ	13	;# 
   148     000E                     TMR1            equ	14	;# 
   149     000E                     TMR1L           equ	14	;# 
   150     000F                     TMR1H           equ	15	;# 
   151     0010                     T1CON           equ	16	;# 
   152     0011                     TMR2            equ	17	;# 
   153     0012                     T2CON           equ	18	;# 
   154     0013                     SSPBUF          equ	19	;# 
   155     0014                     SSPCON          equ	20	;# 
   156     0015                     CCPR1           equ	21	;# 
   157     0015                     CCPR1L          equ	21	;# 
   158     0016                     CCPR1H          equ	22	;# 
   159     0017                     CCP1CON         equ	23	;# 
   160     0018                     RCSTA           equ	24	;# 
   161     0019                     TXREG           equ	25	;# 
   162     001A                     RCREG           equ	26	;# 
   163     001B                     CCPR2           equ	27	;# 
   164     001B                     CCPR2L          equ	27	;# 
   165     001C                     CCPR2H          equ	28	;# 
   166     001D                     CCP2CON         equ	29	;# 
   167     001E                     ADRESH          equ	30	;# 
   168     001F                     ADCON0          equ	31	;# 
   169     0081                     OPTION_REG      equ	129	;# 
   170     0085                     TRISA           equ	133	;# 
   171     0086                     TRISB           equ	134	;# 
   172     0087                     TRISC           equ	135	;# 
   173     0088                     TRISD           equ	136	;# 
   174     0089                     TRISE           equ	137	;# 
   175     008C                     PIE1            equ	140	;# 
   176     008D                     PIE2            equ	141	;# 
   177     008E                     PCON            equ	142	;# 
   178     0091                     SSPCON2         equ	145	;# 
   179     0092                     PR2             equ	146	;# 
   180     0093                     SSPADD          equ	147	;# 
   181     0094                     SSPSTAT         equ	148	;# 
   182     0098                     TXSTA           equ	152	;# 
   183     0099                     SPBRG           equ	153	;# 
   184     009C                     CMCON           equ	156	;# 
   185     009D                     CVRCON          equ	157	;# 
   186     009E                     ADRESL          equ	158	;# 
   187     009F                     ADCON1          equ	159	;# 
   188     010C                     EEDATA          equ	268	;# 
   189     010D                     EEADR           equ	269	;# 
   190     010E                     EEDATH          equ	270	;# 
   191     010F                     EEADRH          equ	271	;# 
   192     018C                     EECON1          equ	396	;# 
   193     018D                     EECON2          equ	397	;# 
   194     0006                     _PORTB          set	6
   195     0013                     _SSPBUF         set	19
   196     0014                     _SSPCON         set	20
   197     0042                     _RD2            set	66
   198     0041                     _RD1            set	65
   199     0040                     _RD0            set	64
   200     0038                     _RC0            set	56
   201     0063                     _SSPIF          set	99
   202     0088                     _TRISD          set	136
   203     0086                     _TRISB          set	134
   204     0087                     _TRISC          set	135
   205     0094                     _SSPSTAT        set	148
   206                           
   207                           	psect	strings
   208     0003                     __pstrings:
   209     0003                     stringtab:
   210     0003                     __stringtab:
   211                           
   212                           ;	String table - string pointers are 1 byte each
   213     0003  1BFF               	btfsc	btemp+1,7
   214     0004  280D               	ljmp	stringcode
   215     0005  1383               	bcf	3,7
   216     0006  187F               	btfsc	btemp+1,0
   217     0007  1783               	bsf	3,7
   218     0008  0800               	movf	0,w
   219     0009  0A84               	incf	4,f
   220     000A  1903               	skipnz
   221     000B  0AFF               	incf	btemp+1,f
   222     000C  0008               	return
   223     000D                     stringcode:
   224     000D                     stringdir:
   225     000D  3000               	movlw	high stringdir
   226     000E  008A               	movwf	10
   227     000F  0804               	movf	4,w
   228     0010  0A84               	incf	4,f
   229     0011  0782               	addwf	2,f
   230     0012                     __stringbase:
   231     0012  3400               	retlw	0
   232     0013                     __end_of__stringtab:
   233     0013                     STR_1:
   234     0013  3452               	retlw	82	;'R'
   235     0014  3465               	retlw	101	;'e'
   236     0015  3463               	retlw	99	;'c'
   237     0016  3465               	retlw	101	;'e'
   238     0017  3469               	retlw	105	;'i'
   239     0018  3476               	retlw	118	;'v'
   240     0019  3465               	retlw	101	;'e'
   241     001A  3464               	retlw	100	;'d'
   242     001B  3420               	retlw	32	;' '
   243     001C  3474               	retlw	116	;'t'
   244     001D  3465               	retlw	101	;'e'
   245     001E  346D               	retlw	109	;'m'
   246     001F  3470               	retlw	112	;'p'
   247     0020  343A               	retlw	58	;':'
   248     0021  3420               	retlw	32	;' '
   249     0022  3400               	retlw	0
   250     0023                     STR_2:
   251     0023  3425               	retlw	37	;'%'
   252     0024  3464               	retlw	100	;'d'
   253     0025  3400               	retlw	0
   254                           
   255                           	psect	cinit
   256     07EC                     start_initialization:	
   257                           ; #config settings
   258                           
   259     07EC                     __initialization:
   260                           
   261                           ; Clear objects allocated to BANK0
   262     07EC  1283               	bcf	3,5	;RP0=0, select bank0
   263     07ED  1303               	bcf	3,6	;RP1=0, select bank0
   264     07EE  01CC               	clrf	__pbssBANK0& (0+127)
   265     07EF  01CD               	clrf	(__pbssBANK0+1)& (0+127)
   266     07F0  01CE               	clrf	(__pbssBANK0+2)& (0+127)
   267     07F1  01CF               	clrf	(__pbssBANK0+3)& (0+127)
   268     07F2  01D0               	clrf	(__pbssBANK0+4)& (0+127)
   269                           
   270                           ; Clear objects allocated to BANK1
   271     07F3  1383               	bcf	3,7	;select IRP bank0
   272     07F4  30A0               	movlw	low __pbssBANK1
   273     07F5  0084               	movwf	4
   274     07F6  30C0               	movlw	low (__pbssBANK1+32)
   275     07F7  120A  118A  2437  120A  118A  	fcall	clear_ram0
   276     07FC                     end_of_initialization:	
   277                           ;End of C runtime variable initialization code
   278                           
   279     07FC                     __end_of__initialization:
   280     07FC  0183               	clrf	3
   281     07FD  120A  118A  2DAA   	ljmp	_main	;jump to C main() function
   282                           
   283                           	psect	bssBANK0
   284     004C                     __pbssBANK0:
   285     004C                     _width:
   286     004C                     	ds	2
   287     004E                     _prec:
   288     004E                     	ds	2
   289     0050                     _flags:
   290     0050                     	ds	1
   291                           
   292                           	psect	bssBANK1
   293     00A0                     __pbssBANK1:
   294     00A0                     _dbuf:
   295     00A0                     	ds	32
   296                           
   297                           	psect	clrtext
   298     0437                     clear_ram0:	
   299                           ;	Called with FSR containing the base address, and
   300                           ;	W with the last address+1
   301                           
   302     0437  0064               	clrwdt	;clear the watchdog before getting into this loop
   303     0438                     clrloop0:
   304     0438  0180               	clrf	0	;clear RAM location pointed to by FSR
   305     0439  0A84               	incf	4,f	;increment pointer
   306     043A  0604               	xorwf	4,w	;XOR with final address
   307     043B  1903               	btfsc	3,2	;have we reached the end yet?
   308     043C  3400               	retlw	0	;all done for this memory range, return
   309     043D  0604               	xorwf	4,w	;XOR again to restore value
   310     043E  2C38               	goto	clrloop0	;do the next byte
   311                           
   312                           	psect	cstackCOMMON
   313     0070                     __pcstackCOMMON:
   314     0070                     ?_send_cmd:
   315     0070                     ?_putch:	
   316                           ; 1 bytes @ 0x0
   317                           
   318     0070                     ?_SPI_master_init:	
   319                           ; 1 bytes @ 0x0
   320                           
   321     0070                     ?_SPI_master_write:	
   322                           ; 1 bytes @ 0x0
   323                           
   324     0070                     ?_SPI_master_read:	
   325                           ; 1 bytes @ 0x0
   326                           
   327     0070                     ?_TC72_init:	
   328                           ; 1 bytes @ 0x0
   329                           
   330     0070                     ?_TC72_read_temperature:	
   331                           ; 1 bytes @ 0x0
   332                           
   333     0070                     ?_lcd_init:	
   334                           ; 1 bytes @ 0x0
   335                           
   336     0070                     ?_send_data:	
   337                           ; 1 bytes @ 0x0
   338                           
   339     0070                     ?_fputc:	
   340                           ; 1 bytes @ 0x0
   341                           
   342     0070                     ?_main:	
   343                           ; 2 bytes @ 0x0
   344                           
   345     0070                     ?___awdiv:	
   346                           ; 2 bytes @ 0x0
   347                           
   348     0070                     ?___awmod:	
   349                           ; 2 bytes @ 0x0
   350                           
   351     0070                     SPI_master_write@a:	
   352                           ; 2 bytes @ 0x0
   353                           
   354     0070                     putch@c:	
   355                           ; 1 bytes @ 0x0
   356                           
   357     0070                     ___awdiv@divisor:	
   358                           ; 1 bytes @ 0x0
   359                           
   360     0070                     ___awmod@divisor:	
   361                           ; 2 bytes @ 0x0
   362                           
   363     0070                     fputc@c:	
   364                           ; 2 bytes @ 0x0
   365                           
   366     0070                     ??_send_cmd:	
   367                           ; 2 bytes @ 0x0
   368                           
   369     0070                     ??_putch:	
   370                           ; 1 bytes @ 0x0
   371                           
   372     0070                     ??_SPI_master_init:	
   373                           ; 1 bytes @ 0x0
   374                           
   375     0070                     ??_SPI_master_write:	
   376                           ; 1 bytes @ 0x0
   377                           
   378     0070                     ??_SPI_master_read:	
   379                           ; 1 bytes @ 0x0
   380                           
   381     0070                     ??_send_data:	
   382                           ; 1 bytes @ 0x0
   383                           
   384                           
   385                           ; 1 bytes @ 0x0
   386     0070                     	ds	1
   387     0071                     ??_TC72_init:
   388     0071                     ??_TC72_read_temperature:	
   389                           ; 1 bytes @ 0x1
   390                           
   391                           
   392                           ; 1 bytes @ 0x1
   393     0071                     	ds	1
   394     0072                     send_cmd@b:
   395     0072                     send_data@c:	
   396                           ; 1 bytes @ 0x2
   397                           
   398     0072                     ___awdiv@dividend:	
   399                           ; 1 bytes @ 0x2
   400                           
   401     0072                     ___awmod@dividend:	
   402                           ; 2 bytes @ 0x2
   403                           
   404     0072                     fputc@fp:	
   405                           ; 2 bytes @ 0x2
   406                           
   407                           
   408                           ; 2 bytes @ 0x2
   409     0072                     	ds	1
   410     0073                     ?_display_data:
   411     0073                     TC72_read_temperature@temp:	
   412                           ; 1 bytes @ 0x3
   413                           
   414     0073                     display_data@ptr:	
   415                           ; 1 bytes @ 0x3
   416                           
   417     0073                     ??_lcd_init:	
   418                           ; 2 bytes @ 0x3
   419                           
   420                           
   421                           ; 1 bytes @ 0x3
   422     0073                     	ds	1
   423     0074                     ___awdiv@counter:
   424     0074                     ___awmod@counter:	
   425                           ; 1 bytes @ 0x4
   426                           
   427     0074                     ??_fputc:	
   428                           ; 1 bytes @ 0x4
   429                           
   430     0074                     ??___awdiv:	
   431                           ; 1 bytes @ 0x4
   432                           
   433     0074                     ??___awmod:	
   434                           ; 1 bytes @ 0x4
   435                           
   436                           
   437                           ; 1 bytes @ 0x4
   438     0074                     	ds	1
   439     0075                     ___awdiv@sign:
   440     0075                     ___awmod@sign:	
   441                           ; 1 bytes @ 0x5
   442                           
   443     0075                     ??_display_data:	
   444                           ; 1 bytes @ 0x5
   445                           
   446                           
   447                           ; 1 bytes @ 0x5
   448     0075                     	ds	1
   449     0076                     ?_abs:
   450     0076                     ___awdiv@quotient:	
   451                           ; 2 bytes @ 0x6
   452                           
   453     0076                     abs@a:	
   454                           ; 2 bytes @ 0x6
   455                           
   456                           
   457                           ; 2 bytes @ 0x6
   458     0076                     	ds	2
   459     0078                     ??_abs:
   460                           
   461                           ; 1 bytes @ 0x8
   462     0078                     	ds	5
   463     007D                     vfprintf@cfmt:
   464     007D                     ??_vfprintf:	
   465                           ; 1 bytes @ 0xD
   466                           
   467                           
   468                           ; 1 bytes @ 0xD
   469     007D                     	ds	1
   470                           
   471                           	psect	cstackBANK0
   472     0020                     __pcstackBANK0:
   473     0020                     ?_vfpfcnvrt:
   474     0020                     vfpfcnvrt@fp:	
   475                           ; 1 bytes @ 0x0
   476                           
   477                           
   478                           ; 2 bytes @ 0x0
   479     0020                     	ds	2
   480     0022                     vfpfcnvrt@fmt:
   481                           
   482                           ; 1 bytes @ 0x2
   483     0022                     	ds	1
   484     0023                     vfpfcnvrt@ap:
   485                           
   486                           ; 1 bytes @ 0x3
   487     0023                     	ds	1
   488     0024                     ??_vfpfcnvrt:
   489                           
   490                           ; 1 bytes @ 0x4
   491     0024                     	ds	2
   492     0026                     vfpfcnvrt@done:
   493                           
   494                           ; 1 bytes @ 0x6
   495     0026                     	ds	1
   496     0027                     vfpfcnvrt@cp:
   497                           
   498                           ; 1 bytes @ 0x7
   499     0027                     	ds	1
   500     0028                     vfpfcnvrt@convarg:
   501                           
   502                           ; 4 bytes @ 0x8
   503     0028                     	ds	4
   504     002C                     vfpfcnvrt@c:
   505                           
   506                           ; 1 bytes @ 0xC
   507     002C                     	ds	1
   508     002D                     ?_vfprintf:
   509     002D                     vfprintf@fp:	
   510                           ; 2 bytes @ 0xD
   511                           
   512                           
   513                           ; 2 bytes @ 0xD
   514     002D                     	ds	2
   515     002F                     vfprintf@fmt:
   516                           
   517                           ; 1 bytes @ 0xF
   518     002F                     	ds	1
   519     0030                     vfprintf@ap:
   520                           
   521                           ; 1 bytes @ 0x10
   522     0030                     	ds	1
   523     0031                     ?_sprintf:
   524     0031                     sprintf@s:	
   525                           ; 2 bytes @ 0x11
   526                           
   527                           
   528                           ; 1 bytes @ 0x11
   529     0031                     	ds	1
   530     0032                     sprintf@fmt:
   531                           
   532                           ; 1 bytes @ 0x12
   533     0032                     	ds	3
   534     0035                     ??_sprintf:
   535                           
   536                           ; 1 bytes @ 0x15
   537     0035                     	ds	1
   538     0036                     sprintf@ap:
   539                           
   540                           ; 1 bytes @ 0x16
   541     0036                     	ds	1
   542     0037                     sprintf@f:
   543                           
   544                           ; 11 bytes @ 0x17
   545     0037                     	ds	11
   546     0042                     ??_main:
   547                           
   548                           ; 1 bytes @ 0x22
   549     0042                     	ds	3
   550     0045                     main@temp:
   551                           
   552                           ; 5 bytes @ 0x25
   553     0045                     	ds	5
   554     004A                     main@result:
   555                           
   556                           ; 2 bytes @ 0x2A
   557     004A                     	ds	2
   558                           
   559                           	psect	maintext
   560     05AA                     __pmaintext:	
   561 ;;
   562 ;;Main: autosize = 0, tempsize = 3, incstack = 0, save=0
   563 ;;
   564 ;; *************** function _main *****************
   565 ;; Defined at:
   566 ;;		line 143 in file "TC72TEMP_SENSOR.c"
   567 ;; Parameters:    Size  Location     Type
   568 ;;		None
   569 ;; Auto vars:     Size  Location     Type
   570 ;;  temp            5   37[BANK0 ] unsigned char [5]
   571 ;;  result          2   42[BANK0 ] int 
   572 ;; Return value:  Size  Location     Type
   573 ;;                  2   70[None  ] int 
   574 ;; Registers used:
   575 ;;		wreg, fsr0l, fsr0h, status,2, status,0, pclath, btemp1, cstack
   576 ;; Tracked objects:
   577 ;;		On entry : B00/0
   578 ;;		On exit  : 0/0
   579 ;;		Unchanged: 0/0
   580 ;; Data sizes:     COMMON   BANK0   BANK1   BANK3   BANK2
   581 ;;      Params:         0       0       0       0       0
   582 ;;      Locals:         0       7       0       0       0
   583 ;;      Temps:          0       3       0       0       0
   584 ;;      Totals:         0      10       0       0       0
   585 ;;Total ram usage:       10 bytes
   586 ;; Hardware stack levels required when called: 5
   587 ;; This function calls:
   588 ;;		_SPI_master_init
   589 ;;		_TC72_init
   590 ;;		_TC72_read_temperature
   591 ;;		_display_data
   592 ;;		_lcd_init
   593 ;;		_send_cmd
   594 ;;		_sprintf
   595 ;; This function is called by:
   596 ;;		Startup code after reset
   597 ;; This function uses a non-reentrant model
   598 ;;
   599                           
   600     05AA                     _main:	
   601                           ;psect for function _main
   602                           
   603     05AA                     l1219:	
   604                           ;incstack = 0
   605                           ; Regs used in _main: [wreg-fsr0h+status,2+status,0+pclath+btemp1+cstack]
   606                           
   607                           
   608                           ;TC72TEMP_SENSOR.c: 145:     int result;;TC72TEMP_SENSOR.c: 146:     char temp[5];;TC72T
      +                          EMP_SENSOR.c: 148:     TRISC = 0x10;
   609     05AA  3010               	movlw	16
   610     05AB  1683               	bsf	3,5	;RP0=1, select bank1
   611     05AC  1303               	bcf	3,6	;RP1=0, select bank1
   612     05AD  0087               	movwf	7	;volatile
   613     05AE                     l1221:
   614                           
   615                           ;TC72TEMP_SENSOR.c: 149:     TRISB =0x00;
   616     05AE  0186               	clrf	6	;volatile
   617                           
   618                           ;TC72TEMP_SENSOR.c: 150:     TRISD = 0x00;
   619     05AF  0188               	clrf	8	;volatile
   620     05B0                     l1223:
   621                           
   622                           ;TC72TEMP_SENSOR.c: 151:     lcd_init();
   623     05B0  120A  118A  248F  120A  118A  	fcall	_lcd_init
   624     05B5                     l1225:
   625                           
   626                           ;TC72TEMP_SENSOR.c: 153:    {;TC72TEMP_SENSOR.c: 155:     SPI_master_init();
   627     05B5  120A  118A  242F  120A  118A  	fcall	_SPI_master_init
   628     05BA                     l1227:
   629                           
   630                           ;TC72TEMP_SENSOR.c: 156:     TC72_init();
   631     05BA  120A  118A  24A8  120A  118A  	fcall	_TC72_init
   632     05BF                     l1229:
   633                           
   634                           ;TC72TEMP_SENSOR.c: 158:     send_cmd(0x80);
   635     05BF  3080               	movlw	128
   636     05C0  120A  118A  247A  120A  118A  	fcall	_send_cmd
   637     05C5                     l1231:
   638                           
   639                           ;TC72TEMP_SENSOR.c: 159:     display_data("Received temp: ");
   640     05C5  3001               	movlw	(low ((STR_1-__stringbase)| (0+32768)))& (0+255)
   641     05C6  00F3               	movwf	display_data@ptr
   642     05C7  3080               	movlw	128
   643     05C8  00F4               	movwf	display_data@ptr+1
   644     05C9  120A  118A  252D  120A  118A  	fcall	_display_data
   645     05CE                     l1233:
   646                           
   647                           ;TC72TEMP_SENSOR.c: 160:      _delay((unsigned long)((100)*(20000000/4000.0)));
   648     05CE  3003               	movlw	3
   649     05CF  1283               	bcf	3,5	;RP0=0, select bank0
   650     05D0  1303               	bcf	3,6	;RP1=0, select bank0
   651     05D1  00C4               	movwf	??_main+2
   652     05D2  308A               	movlw	138
   653     05D3  00C3               	movwf	??_main+1
   654     05D4  3055               	movlw	85
   655     05D5  00C2               	movwf	??_main
   656     05D6                     u797:
   657     05D6  0BC2               	decfsz	??_main,f
   658     05D7  2DD6               	goto	u797
   659     05D8  0BC3               	decfsz	??_main+1,f
   660     05D9  2DD6               	goto	u797
   661     05DA  0BC4               	decfsz	??_main+2,f
   662     05DB  2DD6               	goto	u797
   663     05DC                     l1235:
   664                           
   665                           ;TC72TEMP_SENSOR.c: 162:     result = TC72_read_temperature();
   666     05DC  120A  118A  24C6  120A  118A  	fcall	_TC72_read_temperature
   667     05E1  1283               	bcf	3,5	;RP0=0, select bank0
   668     05E2  1303               	bcf	3,6	;RP1=0, select bank0
   669     05E3  00C2               	movwf	??_main
   670     05E4  01C3               	clrf	??_main+1
   671     05E5  0842               	movf	??_main,w
   672     05E6  00CA               	movwf	main@result
   673     05E7  0843               	movf	??_main+1,w
   674     05E8  00CB               	movwf	main@result+1
   675     05E9                     l1237:
   676                           
   677                           ;TC72TEMP_SENSOR.c: 163:     sprintf(temp, "%d",result);
   678     05E9  3045               	movlw	(low (main@temp| 0))& (0+255)
   679     05EA  00B1               	movwf	sprintf@s
   680     05EB  3011               	movlw	(low ((STR_2-__stringbase)| (0+32768)))& (0+255)
   681     05EC  00B2               	movwf	sprintf@fmt
   682     05ED  084B               	movf	main@result+1,w
   683     05EE  00B4               	movwf	?_sprintf+3
   684     05EF  084A               	movf	main@result,w
   685     05F0  00B3               	movwf	?_sprintf+2
   686     05F1  120A  118A  24E5  120A  118A  	fcall	_sprintf
   687     05F6                     l1239:
   688                           
   689                           ;TC72TEMP_SENSOR.c: 164:     send_cmd(0xc0);
   690     05F6  30C0               	movlw	192
   691     05F7  120A  118A  247A  120A  118A  	fcall	_send_cmd
   692     05FC                     l1241:
   693                           
   694                           ;TC72TEMP_SENSOR.c: 165:     display_data(temp);
   695     05FC  3045               	movlw	(low (main@temp| 0))& (0+255)
   696     05FD  00F3               	movwf	display_data@ptr
   697     05FE  3000               	movlw	0
   698     05FF  00F4               	movwf	display_data@ptr+1
   699     0600  120A  118A  252D  120A  118A  	fcall	_display_data
   700     0605  2DB5               	goto	l1225
   701     0606  120A  118A  2800   	ljmp	start
   702     0609                     __end_of_main:
   703                           
   704                           	psect	text1
   705     04E5                     __ptext1:	
   706 ;; *************** function _sprintf *****************
   707 ;; Defined at:
   708 ;;		line 9 in file "C:\Program Files\Microchip\xc8\v3.10\pic\sources\c99\common\nf_sprintf.c"
   709 ;; Parameters:    Size  Location     Type
   710 ;;  s               1   17[BANK0 ] PTR unsigned char 
   711 ;;		 -> main@temp(5), 
   712 ;;  fmt             1   18[BANK0 ] PTR const unsigned char 
   713 ;;		 -> STR_2(3), 
   714 ;; Auto vars:     Size  Location     Type
   715 ;;  f              11   23[BANK0 ] struct _IO_FILE
   716 ;;  ret             2    0        int 
   717 ;;  ap              1   22[BANK0 ] PTR void [1]
   718 ;;		 -> ?_sprintf(2), 
   719 ;; Return value:  Size  Location     Type
   720 ;;                  2   17[BANK0 ] int 
   721 ;; Registers used:
   722 ;;		wreg, fsr0l, fsr0h, status,2, status,0, pclath, cstack
   723 ;; Tracked objects:
   724 ;;		On entry : 0/0
   725 ;;		On exit  : 0/0
   726 ;;		Unchanged: 0/0
   727 ;; Data sizes:     COMMON   BANK0   BANK1   BANK3   BANK2
   728 ;;      Params:         0       4       0       0       0
   729 ;;      Locals:         0      12       0       0       0
   730 ;;      Temps:          0       1       0       0       0
   731 ;;      Totals:         0      17       0       0       0
   732 ;;Total ram usage:       17 bytes
   733 ;; Hardware stack levels used: 1
   734 ;; Hardware stack levels required when called: 4
   735 ;; This function calls:
   736 ;;		_vfprintf
   737 ;; This function is called by:
   738 ;;		_main
   739 ;; This function uses a non-reentrant model
   740 ;;
   741                           
   742     04E5                     _sprintf:	
   743                           ;psect for function _sprintf
   744                           
   745     04E5                     l1205:	
   746                           ;incstack = 0
   747                           ; Regs used in _sprintf: [wreg-fsr0h+status,2+status,0+pclath+cstack]
   748                           
   749     04E5  3033               	movlw	(low ((?_sprintf| 0+2)))& (0+255)
   750     04E6  1283               	bcf	3,5	;RP0=0, select bank0
   751     04E7  1303               	bcf	3,6	;RP1=0, select bank0
   752     04E8  00B6               	movwf	sprintf@ap
   753     04E9                     l1207:
   754     04E9  0831               	movf	sprintf@s,w
   755     04EA  00B7               	movwf	sprintf@f
   756     04EB  3000               	movlw	0
   757     04EC  00B8               	movwf	sprintf@f+1
   758     04ED                     l1209:
   759     04ED  01B9               	clrf	sprintf@f+2
   760     04EE  01BA               	clrf	sprintf@f+3
   761     04EF                     l1211:
   762     04EF  01C0               	clrf	sprintf@f+9
   763     04F0  01C1               	clrf	sprintf@f+10
   764     04F1                     l1213:
   765     04F1  3037               	movlw	low sprintf@f
   766     04F2  00AD               	movwf	vfprintf@fp
   767     04F3  3000               	movlw	high sprintf@f
   768     04F4  00AE               	movwf	vfprintf@fp+1
   769     04F5  0832               	movf	sprintf@fmt,w
   770     04F6  00AF               	movwf	vfprintf@fmt
   771     04F7  3036               	movlw	(low (sprintf@ap| 0))& (0+255)
   772     04F8  00B0               	movwf	vfprintf@ap
   773     04F9  120A  118A  2508  120A  118A  	fcall	_vfprintf
   774     04FE                     l1215:
   775     04FE  1283               	bcf	3,5	;RP0=0, select bank0
   776     04FF  1303               	bcf	3,6	;RP1=0, select bank0
   777     0500  0839               	movf	sprintf@f+2,w
   778     0501  0731               	addwf	sprintf@s,w
   779     0502  00B5               	movwf	??_sprintf
   780     0503  0835               	movf	??_sprintf,w
   781     0504  0084               	movwf	4
   782     0505  1383               	bcf	3,7	;select IRP bank0
   783     0506  0180               	clrf	0
   784     0507                     l623:
   785     0507  0008               	return
   786     0508                     __end_of_sprintf:
   787                           
   788                           	psect	text2
   789     0508                     __ptext2:	
   790 ;; *************** function _vfprintf *****************
   791 ;; Defined at:
   792 ;;		line 1817 in file "C:\Program Files\Microchip\xc8\v3.10\pic\sources\c99\common\doprnt.c"
   793 ;; Parameters:    Size  Location     Type
   794 ;;  fp              2   13[BANK0 ] PTR struct _IO_FILE
   795 ;;		 -> sprintf@f(11), 
   796 ;;  fmt             1   15[BANK0 ] PTR const unsigned char 
   797 ;;		 -> STR_2(3), 
   798 ;;  ap              1   16[BANK0 ] PTR PTR void 
   799 ;;		 -> sprintf@ap(1), 
   800 ;; Auto vars:     Size  Location     Type
   801 ;;  cfmt            1   13[COMMON] PTR unsigned char 
   802 ;;		 -> STR_2(3), 
   803 ;; Return value:  Size  Location     Type
   804 ;;                  2   13[BANK0 ] int 
   805 ;; Registers used:
   806 ;;		wreg, fsr0l, fsr0h, status,2, status,0, pclath, cstack
   807 ;; Tracked objects:
   808 ;;		On entry : 0/0
   809 ;;		On exit  : 0/0
   810 ;;		Unchanged: 0/0
   811 ;; Data sizes:     COMMON   BANK0   BANK1   BANK3   BANK2
   812 ;;      Params:         0       4       0       0       0
   813 ;;      Locals:         1       0       0       0       0
   814 ;;      Temps:          0       0       0       0       0
   815 ;;      Totals:         1       4       0       0       0
   816 ;;Total ram usage:        5 bytes
   817 ;; Hardware stack levels used: 1
   818 ;; Hardware stack levels required when called: 3
   819 ;; This function calls:
   820 ;;		_vfpfcnvrt
   821 ;; This function is called by:
   822 ;;		_sprintf
   823 ;; This function uses a non-reentrant model
   824 ;;
   825                           
   826     0508                     _vfprintf:	
   827                           ;psect for function _vfprintf
   828                           
   829     0508                     l1153:	
   830                           ;incstack = 0
   831                           ; Regs used in _vfprintf: [wreg-fsr0h+status,2+status,0+pclath+cstack]
   832                           
   833                           
   834                           ;C:\Program Files\Microchip\xc8\v3.10\pic\sources\c99\common\doprnt.c: 1817: int vfprint
      +                          f(FILE *fp, const char *fmt, va_list ap);C:\Program Files\Microchip\xc8\v3.10\pic\source
      +                          s\c99\common\doprnt.c: 1818: {;C:\Program Files\Microchip\xc8\v3.10\pic\sources\c99\comm
      +                          on\doprnt.c: 1820:     char *cfmt;;C:\Program Files\Microchip\xc8\v3.10\pic\sources\c99\
      +                          common\doprnt.c: 1822:     cfmt = (char *)fmt;
   835     0508  1283               	bcf	3,5	;RP0=0, select bank0
   836     0509  1303               	bcf	3,6	;RP1=0, select bank0
   837     050A  082F               	movf	vfprintf@fmt,w
   838     050B  00FD               	movwf	vfprintf@cfmt
   839                           
   840                           ;C:\Program Files\Microchip\xc8\v3.10\pic\sources\c99\common\doprnt.c: 1826:     while (
      +                          *cfmt) {
   841     050C  2D1C               	goto	l1157
   842     050D                     l1155:
   843                           
   844                           ;C:\Program Files\Microchip\xc8\v3.10\pic\sources\c99\common\doprnt.c: 1830:    vfpfcnvr
      +                          t(fp, &cfmt, ap);
   845     050D  1283               	bcf	3,5	;RP0=0, select bank0
   846     050E  1303               	bcf	3,6	;RP1=0, select bank0
   847     050F  082D               	movf	vfprintf@fp,w
   848     0510  00A0               	movwf	vfpfcnvrt@fp
   849     0511  082E               	movf	vfprintf@fp+1,w
   850     0512  00A1               	movwf	vfpfcnvrt@fp+1
   851     0513  307D               	movlw	(low (vfprintf@cfmt| 0))& (0+255)
   852     0514  00A2               	movwf	vfpfcnvrt@fmt
   853     0515  0830               	movf	vfprintf@ap,w
   854     0516  00A3               	movwf	vfpfcnvrt@ap
   855     0517  120A  118A  2706  120A  118A  	fcall	_vfpfcnvrt
   856     051C                     l1157:
   857                           
   858                           ;C:\Program Files\Microchip\xc8\v3.10\pic\sources\c99\common\doprnt.c: 1826:     while (
      +                          *cfmt) {
   859     051C  087D               	movf	vfprintf@cfmt,w
   860     051D  0084               	movwf	4
   861     051E  120A  118A  200D  120A  118A  	fcall	stringdir
   862     0523  3A00               	xorlw	0
   863     0524  1D03               	skipz
   864     0525  2D27               	goto	u771
   865     0526  2D28               	goto	u770
   866     0527                     u771:
   867     0527  2D0D               	goto	l1155
   868     0528                     u770:
   869     0528                     l1159:
   870                           
   871                           ;C:\Program Files\Microchip\xc8\v3.10\pic\sources\c99\common\doprnt.c: 1835:  return 0;
   872     0528  1283               	bcf	3,5	;RP0=0, select bank0
   873     0529  1303               	bcf	3,6	;RP1=0, select bank0
   874     052A  01AD               	clrf	?_vfprintf
   875     052B  01AE               	clrf	?_vfprintf+1
   876     052C                     l667:
   877     052C  0008               	return
   878     052D                     __end_of_vfprintf:
   879                           
   880                           	psect	text3
   881     0706                     __ptext3:	
   882 ;; *************** function _vfpfcnvrt *****************
   883 ;; Defined at:
   884 ;;		line 1177 in file "C:\Program Files\Microchip\xc8\v3.10\pic\sources\c99\common\doprnt.c"
   885 ;; Parameters:    Size  Location     Type
   886 ;;  fp              2    0[BANK0 ] PTR struct _IO_FILE
   887 ;;		 -> sprintf@f(11), 
   888 ;;  fmt             1    2[BANK0 ] PTR PTR unsigned char 
   889 ;;		 -> vfprintf@cfmt(1), 
   890 ;;  ap              1    3[BANK0 ] PTR PTR void 
   891 ;;		 -> sprintf@ap(1), 
   892 ;; Auto vars:     Size  Location     Type
   893 ;;  convarg         4    8[BANK0 ] struct .
   894 ;;  c               1   12[BANK0 ] unsigned char 
   895 ;;  cp              1    7[BANK0 ] PTR unsigned char 
   896 ;;		 -> STR_2(3), 
   897 ;;  done            1    6[BANK0 ] _Bool 
   898 ;; Return value:  Size  Location     Type
   899 ;;                  1    wreg      void 
   900 ;; Registers used:
   901 ;;		wreg, fsr0l, fsr0h, status,2, status,0, pclath, cstack
   902 ;; Tracked objects:
   903 ;;		On entry : 0/0
   904 ;;		On exit  : 0/0
   905 ;;		Unchanged: 0/0
   906 ;; Data sizes:     COMMON   BANK0   BANK1   BANK3   BANK2
   907 ;;      Params:         0       4       0       0       0
   908 ;;      Locals:         0       7       0       0       0
   909 ;;      Temps:          0       2       0       0       0
   910 ;;      Totals:         0      13       0       0       0
   911 ;;Total ram usage:       13 bytes
   912 ;; Hardware stack levels used: 1
   913 ;; Hardware stack levels required when called: 2
   914 ;; This function calls:
   915 ;;		___awdiv
   916 ;;		___awmod
   917 ;;		_abs
   918 ;;		_fputc
   919 ;; This function is called by:
   920 ;;		_vfprintf
   921 ;; This function uses a non-reentrant model
   922 ;;
   923                           
   924     0706                     _vfpfcnvrt:	
   925                           ;psect for function _vfpfcnvrt
   926                           
   927     0706                     l1075:	
   928                           ;incstack = 0
   929                           ; Regs used in _vfpfcnvrt: [wreg-fsr0h+status,2+status,0+pclath+cstack]
   930                           
   931                           
   932                           ;C:\Program Files\Microchip\xc8\v3.10\pic\sources\c99\common\doprnt.c: 1177: vfpfcnvrt(F
      +                          ILE *fp, char *fmt[], va_list ap);C:\Program Files\Microchip\xc8\v3.10\pic\sources\c99\c
      +                          ommon\doprnt.c: 1178: {;C:\Program Files\Microchip\xc8\v3.10\pic\sources\c99\common\dopr
      +                          nt.c: 1179:     char c, *cp;;C:\Program Files\Microchip\xc8\v3.10\pic\sources\c99\common
      +                          \doprnt.c: 1180:     _Bool done;;C:\Program Files\Microchip\xc8\v3.10\pic\sources\c99\co
      +                          mmon\doprnt.c: 1188:  } convarg;;C:\Program Files\Microchip\xc8\v3.10\pic\sources\c99\co
      +                          mmon\doprnt.c: 1201:     if ((*fmt)[0] == '%') {
   933     0706  1283               	bcf	3,5	;RP0=0, select bank0
   934     0707  1303               	bcf	3,6	;RP1=0, select bank0
   935     0708  0822               	movf	vfpfcnvrt@fmt,w
   936     0709  0084               	movwf	4
   937     070A  0800               	movf	0,w
   938     070B  0084               	movwf	4
   939     070C  120A  118A  200D  120A  118A  	fcall	stringdir
   940     0711  3A25               	xorlw	37
   941     0712  1D03               	skipz
   942     0713  2F15               	goto	u651
   943     0714  2F16               	goto	u650
   944     0715                     u651:
   945     0715  2FD2               	goto	l1119
   946     0716                     u650:
   947     0716                     l1077:
   948                           
   949                           ;C:\Program Files\Microchip\xc8\v3.10\pic\sources\c99\common\doprnt.c: 1202:         ++*
      +                          fmt;
   950     0716  0822               	movf	vfpfcnvrt@fmt,w
   951     0717  0084               	movwf	4
   952     0718  3001               	movlw	1
   953     0719  0780               	addwf	0,f
   954     071A                     l1079:
   955                           
   956                           ;C:\Program Files\Microchip\xc8\v3.10\pic\sources\c99\common\doprnt.c: 1204:         fla
      +                          gs = width = 0;
   957     071A  01CC               	clrf	_width
   958     071B  01CD               	clrf	_width+1
   959     071C  3000               	movlw	0
   960     071D  00D0               	movwf	_flags
   961     071E                     l1081:
   962                           
   963                           ;C:\Program Files\Microchip\xc8\v3.10\pic\sources\c99\common\doprnt.c: 1205:         pre
      +                          c = -1;
   964     071E  30FF               	movlw	255
   965     071F  00CE               	movwf	_prec
   966     0720  30FF               	movlw	255
   967     0721  00CF               	movwf	_prec+1
   968     0722                     l1083:
   969                           
   970                           ;C:\Program Files\Microchip\xc8\v3.10\pic\sources\c99\common\doprnt.c: 1291:   cp = *fmt
      +                          ;
   971     0722  0822               	movf	vfpfcnvrt@fmt,w
   972     0723  0084               	movwf	4
   973     0724  0800               	movf	0,w
   974     0725  00A7               	movwf	vfpfcnvrt@cp
   975     0726                     l1085:
   976                           
   977                           ;C:\Program Files\Microchip\xc8\v3.10\pic\sources\c99\common\doprnt.c: 1361:   if (*cp =
      +                          = 'd' || *cp == 'i') {
   978     0726  0827               	movf	vfpfcnvrt@cp,w
   979     0727  0084               	movwf	4
   980     0728  120A  118A  200D  120A  118A  	fcall	stringdir
   981     072D  3A64               	xorlw	100
   982     072E  1903               	skipnz
   983     072F  2F31               	goto	u661
   984     0730  2F32               	goto	u660
   985     0731                     u661:
   986     0731  2F3E               	goto	l1089
   987     0732                     u660:
   988     0732                     l1087:
   989     0732  0827               	movf	vfpfcnvrt@cp,w
   990     0733  0084               	movwf	4
   991     0734  120A  118A  200D  120A  118A  	fcall	stringdir
   992     0739  3A69               	xorlw	105
   993     073A  1D03               	skipz
   994     073B  2F3D               	goto	u671
   995     073C  2F3E               	goto	u670
   996     073D                     u671:
   997     073D  2FCB               	goto	l1115
   998     073E                     u670:
   999     073E                     l1089:
  1000                           
  1001                           ;C:\Program Files\Microchip\xc8\v3.10\pic\sources\c99\common\doprnt.c: 1404:    convarg.
      +                          sint = (vfpf_sint_t)(int)(*(int *)__va_arg(*(int **)ap, (int)0));
  1002     073E  0823               	movf	vfpfcnvrt@ap,w
  1003     073F  0084               	movwf	4
  1004     0740  1383               	bcf	3,7	;select IRP bank0
  1005     0741  0800               	movf	0,w
  1006     0742  00A4               	movwf	??_vfpfcnvrt
  1007     0743  3002               	movlw	2
  1008     0744  0780               	addwf	0,f
  1009     0745  0824               	movf	??_vfpfcnvrt,w
  1010     0746  0084               	movwf	4
  1011     0747  0800               	movf	0,w
  1012     0748  00A8               	movwf	vfpfcnvrt@convarg
  1013     0749  0A84               	incf	4,f
  1014     074A  0800               	movf	0,w
  1015     074B  00A9               	movwf	vfpfcnvrt@convarg+1
  1016                           
  1017                           ;C:\Program Files\Microchip\xc8\v3.10\pic\sources\c99\common\doprnt.c: 1406:    *fmt = c
      +                          p+1;
  1018     074C  0822               	movf	vfpfcnvrt@fmt,w
  1019     074D  0084               	movwf	4
  1020     074E  0827               	movf	vfpfcnvrt@cp,w
  1021     074F  3E01               	addlw	1
  1022     0750  0080               	movwf	0
  1023     0751                     l1091:
  1024                           
  1025                           ;C:\Program Files\Microchip\xc8\v3.10\pic\sources\c99\common\doprnt.c: 1408:    c = size
      +                          of(dbuf);
  1026     0751  3020               	movlw	32
  1027     0752  00AC               	movwf	vfpfcnvrt@c
  1028     0753                     l1093:
  1029                           
  1030                           ;C:\Program Files\Microchip\xc8\v3.10\pic\sources\c99\common\doprnt.c: 1409:    done = c
      +                          onvarg.sint < 0;
  1031     0753  1BA9               	btfsc	vfpfcnvrt@convarg+1,7
  1032     0754  2F56               	goto	u681
  1033     0755  2F58               	goto	u680
  1034     0756                     u681:
  1035     0756  3001               	movlw	1
  1036     0757  2F59               	goto	u690
  1037     0758                     u680:
  1038     0758  3000               	movlw	0
  1039     0759                     u690:
  1040     0759  00A6               	movwf	vfpfcnvrt@done
  1041     075A                     l1095:
  1042                           
  1043                           ;C:\Program Files\Microchip\xc8\v3.10\pic\sources\c99\common\doprnt.c: 1411:     dbuf[--
      +                          c] = abs(convarg.sint % 10) + '0';
  1044     075A  3001               	movlw	1
  1045     075B  02AC               	subwf	vfpfcnvrt@c,f
  1046     075C  082C               	movf	vfpfcnvrt@c,w
  1047     075D  3EA0               	addlw	(low (_dbuf| 0))& (0+255)
  1048     075E  0084               	movwf	4
  1049     075F  300A               	movlw	10
  1050     0760  00F0               	movwf	___awmod@divisor
  1051     0761  3000               	movlw	0
  1052     0762  00F1               	movwf	___awmod@divisor+1
  1053     0763  0829               	movf	vfpfcnvrt@convarg+1,w
  1054     0764  00F3               	movwf	___awmod@dividend+1
  1055     0765  0828               	movf	vfpfcnvrt@convarg,w
  1056     0766  00F2               	movwf	___awmod@dividend
  1057     0767  120A  118A  2553  120A  118A  	fcall	___awmod
  1058     076C  0871               	movf	?___awmod+1,w
  1059     076D  00F7               	movwf	abs@a+1
  1060     076E  0870               	movf	?___awmod,w
  1061     076F  00F6               	movwf	abs@a
  1062     0770  120A  118A  2454  120A  118A  	fcall	_abs
  1063     0775  0876               	movf	?_abs,w
  1064     0776  3E30               	addlw	48
  1065     0777  1383               	bcf	3,7	;select IRP bank1
  1066     0778  0080               	movwf	0
  1067     0779                     l1097:
  1068                           
  1069                           ;C:\Program Files\Microchip\xc8\v3.10\pic\sources\c99\common\doprnt.c: 1412:     convarg
      +                          .sint /= 10;
  1070     0779  300A               	movlw	10
  1071     077A  00F0               	movwf	___awdiv@divisor
  1072     077B  3000               	movlw	0
  1073     077C  00F1               	movwf	___awdiv@divisor+1
  1074     077D  1283               	bcf	3,5	;RP0=0, select bank0
  1075     077E  1303               	bcf	3,6	;RP1=0, select bank0
  1076     077F  0829               	movf	vfpfcnvrt@convarg+1,w
  1077     0780  00F3               	movwf	___awdiv@dividend+1
  1078     0781  0828               	movf	vfpfcnvrt@convarg,w
  1079     0782  00F2               	movwf	___awdiv@dividend
  1080     0783  120A  118A  2609  120A  118A  	fcall	___awdiv
  1081     0788  0871               	movf	?___awdiv+1,w
  1082     0789  1283               	bcf	3,5	;RP0=0, select bank0
  1083     078A  1303               	bcf	3,6	;RP1=0, select bank0
  1084     078B  00A9               	movwf	vfpfcnvrt@convarg+1
  1085     078C  0870               	movf	?___awdiv,w
  1086     078D  00A8               	movwf	vfpfcnvrt@convarg
  1087     078E                     l1099:
  1088                           
  1089                           ;C:\Program Files\Microchip\xc8\v3.10\pic\sources\c99\common\doprnt.c: 1416:    } while 
      +                          (convarg.sint != 0 && c != 0);
  1090     078E  0828               	movf	vfpfcnvrt@convarg,w
  1091     078F  0429               	iorwf	vfpfcnvrt@convarg+1,w
  1092     0790  1903               	btfsc	3,2
  1093     0791  2F93               	goto	u701
  1094     0792  2F94               	goto	u700
  1095     0793                     u701:
  1096     0793  2F99               	goto	l1103
  1097     0794                     u700:
  1098     0794                     l1101:
  1099     0794  082C               	movf	vfpfcnvrt@c,w
  1100     0795  1D03               	btfss	3,2
  1101     0796  2F98               	goto	u711
  1102     0797  2F99               	goto	u710
  1103     0798                     u711:
  1104     0798  2F5A               	goto	l1095
  1105     0799                     u710:
  1106     0799                     l1103:
  1107                           
  1108                           ;C:\Program Files\Microchip\xc8\v3.10\pic\sources\c99\common\doprnt.c: 1417:    if (c !=
      +                           0 && done) {
  1109     0799  082C               	movf	vfpfcnvrt@c,w
  1110     079A  1903               	btfsc	3,2
  1111     079B  2F9D               	goto	u721
  1112     079C  2F9E               	goto	u720
  1113     079D                     u721:
  1114     079D  2FC4               	goto	l1113
  1115     079E                     u720:
  1116     079E                     l1105:
  1117     079E  0826               	movf	vfpfcnvrt@done,w
  1118     079F  1903               	btfsc	3,2
  1119     07A0  2FA2               	goto	u731
  1120     07A1  2FA3               	goto	u730
  1121     07A2                     u731:
  1122     07A2  2FC4               	goto	l1113
  1123     07A3                     u730:
  1124     07A3                     l1107:
  1125                           
  1126                           ;C:\Program Files\Microchip\xc8\v3.10\pic\sources\c99\common\doprnt.c: 1418:     dbuf[--
      +                          c] = '-';
  1127     07A3  3001               	movlw	1
  1128     07A4  02AC               	subwf	vfpfcnvrt@c,f
  1129     07A5  082C               	movf	vfpfcnvrt@c,w
  1130     07A6  3EA0               	addlw	(low (_dbuf| 0))& (0+255)
  1131     07A7  0084               	movwf	4
  1132     07A8  302D               	movlw	45
  1133     07A9  1383               	bcf	3,7	;select IRP bank1
  1134     07AA  0080               	movwf	0
  1135     07AB  2FC4               	goto	l1113
  1136     07AC                     l1109:
  1137                           
  1138                           ;C:\Program Files\Microchip\xc8\v3.10\pic\sources\c99\common\doprnt.c: 1424:     fputc(d
      +                          buf[c++], fp);
  1139     07AC  082C               	movf	vfpfcnvrt@c,w
  1140     07AD  3EA0               	addlw	(low (_dbuf| 0))& (0+255)
  1141     07AE  0084               	movwf	4
  1142     07AF  1383               	bcf	3,7	;select IRP bank1
  1143     07B0  0800               	movf	0,w
  1144     07B1  00A4               	movwf	??_vfpfcnvrt
  1145     07B2  01A5               	clrf	??_vfpfcnvrt+1
  1146     07B3  0824               	movf	??_vfpfcnvrt,w
  1147     07B4  00F0               	movwf	fputc@c
  1148     07B5  0825               	movf	??_vfpfcnvrt+1,w
  1149     07B6  00F1               	movwf	fputc@c+1
  1150     07B7  0820               	movf	vfpfcnvrt@fp,w
  1151     07B8  00F2               	movwf	fputc@fp
  1152     07B9  0821               	movf	vfpfcnvrt@fp+1,w
  1153     07BA  00F3               	movwf	fputc@fp+1
  1154     07BB  120A  118A  266C  120A  118A  	fcall	_fputc
  1155     07C0                     l1111:
  1156     07C0  3001               	movlw	1
  1157     07C1  1283               	bcf	3,5	;RP0=0, select bank0
  1158     07C2  1303               	bcf	3,6	;RP1=0, select bank0
  1159     07C3  07AC               	addwf	vfpfcnvrt@c,f
  1160     07C4                     l1113:
  1161                           
  1162                           ;C:\Program Files\Microchip\xc8\v3.10\pic\sources\c99\common\doprnt.c: 1423:    while (c
      +                           != sizeof(dbuf)) {
  1163     07C4  3020               	movlw	32
  1164     07C5  062C               	xorwf	vfpfcnvrt@c,w
  1165     07C6  1D03               	btfss	3,2
  1166     07C7  2FC9               	goto	u741
  1167     07C8  2FCA               	goto	u740
  1168     07C9                     u741:
  1169     07C9  2FAC               	goto	l1109
  1170     07CA                     u740:
  1171     07CA  2FEB               	goto	l661
  1172     07CB                     l1115:
  1173                           
  1174                           ;C:\Program Files\Microchip\xc8\v3.10\pic\sources\c99\common\doprnt.c: 1806:         ++*
      +                          fmt;
  1175     07CB  1283               	bcf	3,5	;RP0=0, select bank0
  1176     07CC  1303               	bcf	3,6	;RP1=0, select bank0
  1177     07CD  0822               	movf	vfpfcnvrt@fmt,w
  1178     07CE  0084               	movwf	4
  1179     07CF  3001               	movlw	1
  1180     07D0  0780               	addwf	0,f
  1181     07D1  2FEB               	goto	l661
  1182     07D2                     l1119:
  1183                           
  1184                           ;C:\Program Files\Microchip\xc8\v3.10\pic\sources\c99\common\doprnt.c: 1811:     fputc((
      +                          int)(*fmt)[0], fp);
  1185     07D2  0822               	movf	vfpfcnvrt@fmt,w
  1186     07D3  0084               	movwf	4
  1187     07D4  0800               	movf	0,w
  1188     07D5  0084               	movwf	4
  1189     07D6  120A  118A  200D  120A  118A  	fcall	stringdir
  1190     07DB  00A4               	movwf	??_vfpfcnvrt
  1191     07DC  01A5               	clrf	??_vfpfcnvrt+1
  1192     07DD  0824               	movf	??_vfpfcnvrt,w
  1193     07DE  00F0               	movwf	fputc@c
  1194     07DF  0825               	movf	??_vfpfcnvrt+1,w
  1195     07E0  00F1               	movwf	fputc@c+1
  1196     07E1  0820               	movf	vfpfcnvrt@fp,w
  1197     07E2  00F2               	movwf	fputc@fp
  1198     07E3  0821               	movf	vfpfcnvrt@fp+1,w
  1199     07E4  00F3               	movwf	fputc@fp+1
  1200     07E5  120A  118A  266C  120A  118A  	fcall	_fputc
  1201     07EA  2FCB               	goto	l1115
  1202     07EB                     l661:
  1203     07EB  0008               	return
  1204     07EC                     __end_of_vfpfcnvrt:
  1205                           
  1206                           	psect	text4
  1207     066C                     __ptext4:	
  1208 ;; *************** function _fputc *****************
  1209 ;; Defined at:
  1210 ;;		line 8 in file "C:\Program Files\Microchip\xc8\v3.10\pic\sources\c99\common\nf_fputc.c"
  1211 ;; Parameters:    Size  Location     Type
  1212 ;;  c               2    0[COMMON] int 
  1213 ;;  fp              2    2[COMMON] PTR struct _IO_FILE
  1214 ;;		 -> sprintf@f(11), 
  1215 ;; Auto vars:     Size  Location     Type
  1216 ;;		None
  1217 ;; Return value:  Size  Location     Type
  1218 ;;                  2    0[COMMON] int 
  1219 ;; Registers used:
  1220 ;;		wreg, fsr0l, fsr0h, status,2, status,0, pclath, cstack
  1221 ;; Tracked objects:
  1222 ;;		On entry : 0/0
  1223 ;;		On exit  : 0/0
  1224 ;;		Unchanged: 0/0
  1225 ;; Data sizes:     COMMON   BANK0   BANK1   BANK3   BANK2
  1226 ;;      Params:         4       0       0       0       0
  1227 ;;      Locals:         0       0       0       0       0
  1228 ;;      Temps:          9       0       0       0       0
  1229 ;;      Totals:        13       0       0       0       0
  1230 ;;Total ram usage:       13 bytes
  1231 ;; Hardware stack levels used: 1
  1232 ;; Hardware stack levels required when called: 1
  1233 ;; This function calls:
  1234 ;;		_putch
  1235 ;; This function is called by:
  1236 ;;		_vfpfcnvrt
  1237 ;; This function uses a non-reentrant model
  1238 ;;
  1239                           
  1240     066C                     _fputc:	
  1241                           ;psect for function _fputc
  1242                           
  1243     066C                     l1053:	
  1244                           ;incstack = 0
  1245                           ; Regs used in _fputc: [wreg-fsr0h+status,2+status,0+pclath+cstack]
  1246                           
  1247     066C  0872               	movf	fputc@fp,w
  1248     066D  0473               	iorwf	fputc@fp+1,w
  1249     066E  1903               	btfsc	3,2
  1250     066F  2E71               	goto	u591
  1251     0670  2E72               	goto	u590
  1252     0671                     u591:
  1253     0671  2E78               	goto	l1057
  1254     0672                     u590:
  1255     0672                     l1055:
  1256     0672  0872               	movf	fputc@fp,w
  1257     0673  0473               	iorwf	fputc@fp+1,w
  1258     0674  1D03               	btfss	3,2
  1259     0675  2E77               	goto	u601
  1260     0676  2E78               	goto	u600
  1261     0677                     u601:
  1262     0677  2E7F               	goto	l1059
  1263     0678                     u600:
  1264     0678                     l1057:
  1265     0678  0870               	movf	fputc@c,w
  1266     0679  120A  118A  242E  120A  118A  	fcall	_putch
  1267     067E  2F05               	goto	l686
  1268     067F                     l1059:
  1269     067F  0872               	movf	fputc@fp,w
  1270     0680  3E09               	addlw	9
  1271     0681  00F4               	movwf	??_fputc
  1272     0682  0873               	movf	fputc@fp+1,w
  1273     0683  1803               	skipnc
  1274     0684  3E01               	addlw	1
  1275     0685  3E00               	addlw	0
  1276     0686  00F5               	movwf	??_fputc+1
  1277     0687  0874               	movf	??_fputc,w
  1278     0688  0084               	movwf	4
  1279     0689  1783               	bsf	3,7
  1280     068A  1C75               	btfss	??_fputc+1,0
  1281     068B  1383               	bcf	3,7
  1282     068C  0800               	movf	0,w
  1283     068D  00F6               	movwf	??_fputc+2
  1284     068E  0A84               	incf	4,f
  1285     068F  0800               	movf	0,w
  1286     0690  00F7               	movwf	??_fputc+3
  1287     0691  0876               	movf	??_fputc+2,w
  1288     0692  0477               	iorwf	??_fputc+3,w
  1289     0693  1903               	btfsc	3,2
  1290     0694  2E96               	goto	u611
  1291     0695  2E97               	goto	u610
  1292     0696                     u611:
  1293     0696  2EC9               	goto	l1063
  1294     0697                     u610:
  1295     0697                     l1061:
  1296     0697  0872               	movf	fputc@fp,w
  1297     0698  3E09               	addlw	9
  1298     0699  00F4               	movwf	??_fputc
  1299     069A  0873               	movf	fputc@fp+1,w
  1300     069B  1803               	skipnc
  1301     069C  3E01               	addlw	1
  1302     069D  3E00               	addlw	0
  1303     069E  00F5               	movwf	??_fputc+1
  1304     069F  0874               	movf	??_fputc,w
  1305     06A0  0084               	movwf	4
  1306     06A1  1783               	bsf	3,7
  1307     06A2  1C75               	btfss	??_fputc+1,0
  1308     06A3  1383               	bcf	3,7
  1309     06A4  0800               	movf	0,w
  1310     06A5  00F6               	movwf	??_fputc+2
  1311     06A6  0A84               	incf	4,f
  1312     06A7  0800               	movf	0,w
  1313     06A8  00F7               	movwf	??_fputc+3
  1314     06A9  0872               	movf	fputc@fp,w
  1315     06AA  3E02               	addlw	2
  1316     06AB  00F8               	movwf	??_fputc+4
  1317     06AC  0873               	movf	fputc@fp+1,w
  1318     06AD  1803               	skipnc
  1319     06AE  3E01               	addlw	1
  1320     06AF  3E00               	addlw	0
  1321     06B0  00F9               	movwf	??_fputc+5
  1322     06B1  0878               	movf	??_fputc+4,w
  1323     06B2  0084               	movwf	4
  1324     06B3  1783               	bsf	3,7
  1325     06B4  1C79               	btfss	??_fputc+5,0
  1326     06B5  1383               	bcf	3,7
  1327     06B6  0800               	movf	0,w
  1328     06B7  00FA               	movwf	??_fputc+6
  1329     06B8  0A84               	incf	4,f
  1330     06B9  0800               	movf	0,w
  1331     06BA  00FB               	movwf	??_fputc+7
  1332     06BB  087B               	movf	??_fputc+7,w
  1333     06BC  3A80               	xorlw	128
  1334     06BD  00FC               	movwf	??_fputc+8
  1335     06BE  0877               	movf	??_fputc+3,w
  1336     06BF  3A80               	xorlw	128
  1337     06C0  027C               	subwf	??_fputc+8,w
  1338     06C1  1D03               	skipz
  1339     06C2  2EC5               	goto	u625
  1340     06C3  0876               	movf	??_fputc+2,w
  1341     06C4  027A               	subwf	??_fputc+6,w
  1342     06C5                     u625:
  1343     06C5  1803               	skipnc
  1344     06C6  2EC8               	goto	u621
  1345     06C7  2EC9               	goto	u620
  1346     06C8                     u621:
  1347     06C8  2F05               	goto	l686
  1348     06C9                     u620:
  1349     06C9                     l1063:
  1350     06C9  0872               	movf	fputc@fp,w
  1351     06CA  0084               	movwf	4
  1352     06CB  1783               	bsf	3,7
  1353     06CC  1C73               	btfss	fputc@fp+1,0
  1354     06CD  1383               	bcf	3,7
  1355     06CE  0800               	movf	0,w
  1356     06CF  00F4               	movwf	??_fputc
  1357     06D0  0A84               	incf	4,f
  1358     06D1  0800               	movf	0,w
  1359     06D2  00F5               	movwf	??_fputc+1
  1360     06D3  0872               	movf	fputc@fp,w
  1361     06D4  3E02               	addlw	2
  1362     06D5  00F6               	movwf	??_fputc+2
  1363     06D6  0873               	movf	fputc@fp+1,w
  1364     06D7  1803               	skipnc
  1365     06D8  3E01               	addlw	1
  1366     06D9  3E00               	addlw	0
  1367     06DA  00F7               	movwf	??_fputc+3
  1368     06DB  0876               	movf	??_fputc+2,w
  1369     06DC  0084               	movwf	4
  1370     06DD  1783               	bsf	3,7
  1371     06DE  1C77               	btfss	??_fputc+3,0
  1372     06DF  1383               	bcf	3,7
  1373     06E0  0800               	movf	0,w
  1374     06E1  0774               	addwf	??_fputc,w
  1375     06E2  00F9               	movwf	??_fputc+5
  1376     06E3  0875               	movf	??_fputc+1,w
  1377     06E4  00F8               	movwf	??_fputc+4
  1378     06E5  1803               	skipnc
  1379     06E6  0AF8               	incf	??_fputc+4,f
  1380     06E7  1F80               	btfss	0,7
  1381     06E8  2EEA               	goto	u630
  1382     06E9  03F8               	decf	??_fputc+4,f
  1383     06EA                     u630:
  1384     06EA  0878               	movf	??_fputc+4,w
  1385     06EB  00FA               	movwf	??_fputc+6
  1386     06EC  0879               	movf	??_fputc+5,w
  1387     06ED  0084               	movwf	4
  1388     06EE  1783               	bsf	3,7
  1389     06EF  1C7A               	btfss	??_fputc+6,0
  1390     06F0  1383               	bcf	3,7
  1391     06F1  0870               	movf	fputc@c,w
  1392     06F2  0080               	movwf	0
  1393     06F3  0872               	movf	fputc@fp,w
  1394     06F4  3E02               	addlw	2
  1395     06F5  00F4               	movwf	??_fputc
  1396     06F6  0873               	movf	fputc@fp+1,w
  1397     06F7  1803               	skipnc
  1398     06F8  3E01               	addlw	1
  1399     06F9  3E00               	addlw	0
  1400     06FA  00F5               	movwf	??_fputc+1
  1401     06FB  0874               	movf	??_fputc,w
  1402     06FC  0084               	movwf	4
  1403     06FD  1783               	bsf	3,7
  1404     06FE  1C75               	btfss	??_fputc+1,0
  1405     06FF  1383               	bcf	3,7
  1406     0700  3001               	movlw	1
  1407     0701  0780               	addwf	0,f
  1408     0702  0A84               	incf	4,f
  1409     0703  1803               	skipnc
  1410     0704  0A80               	incf	0,f
  1411     0705                     l686:
  1412     0705  0008               	return
  1413     0706                     __end_of_fputc:
  1414                           
  1415                           	psect	text5
  1416     042E                     __ptext5:	
  1417 ;; *************** function _putch *****************
  1418 ;; Defined at:
  1419 ;;		line 7 in file "C:\Program Files\Microchip\xc8\v3.10\pic\sources\c99\common\putch.c"
  1420 ;; Parameters:    Size  Location     Type
  1421 ;;  c               1    wreg     unsigned char 
  1422 ;; Auto vars:     Size  Location     Type
  1423 ;;  c               1    0[COMMON] unsigned char 
  1424 ;; Return value:  Size  Location     Type
  1425 ;;                  1    wreg      void 
  1426 ;; Registers used:
  1427 ;;		wreg
  1428 ;; Tracked objects:
  1429 ;;		On entry : 0/0
  1430 ;;		On exit  : 0/0
  1431 ;;		Unchanged: 0/0
  1432 ;; Data sizes:     COMMON   BANK0   BANK1   BANK3   BANK2
  1433 ;;      Params:         0       0       0       0       0
  1434 ;;      Locals:         0       0       0       0       0
  1435 ;;      Temps:          0       0       0       0       0
  1436 ;;      Totals:         0       0       0       0       0
  1437 ;;Total ram usage:        0 bytes
  1438 ;; Hardware stack levels used: 1
  1439 ;; This function calls:
  1440 ;;		Nothing
  1441 ;; This function is called by:
  1442 ;;		_fputc
  1443 ;; This function uses a non-reentrant model
  1444 ;;
  1445                           
  1446     042E                     _putch:	
  1447                           ;psect for function _putch
  1448                           
  1449     042E                     l697:	
  1450                           ;incstack = 0
  1451                           ; Regs used in _putch: [wreg]
  1452                           
  1453     042E  0008               	return
  1454     042F                     __end_of_putch:
  1455                           
  1456                           	psect	text6
  1457     0454                     __ptext6:	
  1458 ;; *************** function _abs *****************
  1459 ;; Defined at:
  1460 ;;		line 1 in file "C:\Program Files\Microchip\xc8\v3.10\pic\sources\c99\common\abs.c"
  1461 ;; Parameters:    Size  Location     Type
  1462 ;;  a               2    6[COMMON] int 
  1463 ;; Auto vars:     Size  Location     Type
  1464 ;;		None
  1465 ;; Return value:  Size  Location     Type
  1466 ;;                  2    6[COMMON] int 
  1467 ;; Registers used:
  1468 ;;		wreg, status,2, status,0
  1469 ;; Tracked objects:
  1470 ;;		On entry : 0/0
  1471 ;;		On exit  : 0/0
  1472 ;;		Unchanged: 0/0
  1473 ;; Data sizes:     COMMON   BANK0   BANK1   BANK3   BANK2
  1474 ;;      Params:         2       0       0       0       0
  1475 ;;      Locals:         0       0       0       0       0
  1476 ;;      Temps:          2       0       0       0       0
  1477 ;;      Totals:         4       0       0       0       0
  1478 ;;Total ram usage:        4 bytes
  1479 ;; Hardware stack levels used: 1
  1480 ;; This function calls:
  1481 ;;		Nothing
  1482 ;; This function is called by:
  1483 ;;		_vfpfcnvrt
  1484 ;; This function uses a non-reentrant model
  1485 ;;
  1486                           
  1487     0454                     _abs:	
  1488                           ;psect for function _abs
  1489                           
  1490     0454                     l1067:	
  1491                           ;incstack = 0
  1492                           ; Regs used in _abs: [wreg+status,2+status,0]
  1493                           
  1494     0454  1BF7               	btfsc	abs@a+1,7
  1495     0455  2C57               	goto	u641
  1496     0456  2C58               	goto	u640
  1497     0457                     u641:
  1498     0457  2C59               	goto	l1071
  1499     0458                     u640:
  1500     0458                     l1069:
  1501     0458  2C64               	goto	l674
  1502     0459                     l1071:
  1503     0459  0976               	comf	abs@a,w
  1504     045A  00F8               	movwf	??_abs
  1505     045B  0977               	comf	abs@a+1,w
  1506     045C  00F9               	movwf	??_abs+1
  1507     045D  0AF8               	incf	??_abs,f
  1508     045E  1903               	skipnz
  1509     045F  0AF9               	incf	??_abs+1,f
  1510     0460  0878               	movf	??_abs,w
  1511     0461  00F6               	movwf	?_abs
  1512     0462  0879               	movf	??_abs+1,w
  1513     0463  00F7               	movwf	?_abs+1
  1514     0464                     l674:
  1515     0464  0008               	return
  1516     0465                     __end_of_abs:
  1517                           
  1518                           	psect	text7
  1519     0553                     __ptext7:	
  1520 ;; *************** function ___awmod *****************
  1521 ;; Defined at:
  1522 ;;		line 5 in file "C:\Program Files\Microchip\xc8\v3.10\pic\sources\c99\common\awmod.c"
  1523 ;; Parameters:    Size  Location     Type
  1524 ;;  divisor         2    0[COMMON] int 
  1525 ;;  dividend        2    2[COMMON] int 
  1526 ;; Auto vars:     Size  Location     Type
  1527 ;;  sign            1    5[COMMON] unsigned char 
  1528 ;;  counter         1    4[COMMON] unsigned char 
  1529 ;; Return value:  Size  Location     Type
  1530 ;;                  2    0[COMMON] int 
  1531 ;; Registers used:
  1532 ;;		wreg, status,2, status,0
  1533 ;; Tracked objects:
  1534 ;;		On entry : 0/0
  1535 ;;		On exit  : 0/0
  1536 ;;		Unchanged: 0/0
  1537 ;; Data sizes:     COMMON   BANK0   BANK1   BANK3   BANK2
  1538 ;;      Params:         4       0       0       0       0
  1539 ;;      Locals:         2       0       0       0       0
  1540 ;;      Temps:          0       0       0       0       0
  1541 ;;      Totals:         6       0       0       0       0
  1542 ;;Total ram usage:        6 bytes
  1543 ;; Hardware stack levels used: 1
  1544 ;; This function calls:
  1545 ;;		Nothing
  1546 ;; This function is called by:
  1547 ;;		_vfpfcnvrt
  1548 ;; This function uses a non-reentrant model
  1549 ;;
  1550                           
  1551     0553                     ___awmod:	
  1552                           ;psect for function ___awmod
  1553                           
  1554     0553                     l1015:	
  1555                           ;incstack = 0
  1556                           ; Regs used in ___awmod: [wreg+status,2+status,0]
  1557                           
  1558     0553  01F5               	clrf	___awmod@sign
  1559     0554                     l1017:
  1560     0554  1FF3               	btfss	___awmod@dividend+1,7
  1561     0555  2D57               	goto	u501
  1562     0556  2D58               	goto	u500
  1563     0557                     u501:
  1564     0557  2D5F               	goto	l1023
  1565     0558                     u500:
  1566     0558                     l1019:
  1567     0558  09F2               	comf	___awmod@dividend,f
  1568     0559  09F3               	comf	___awmod@dividend+1,f
  1569     055A  0AF2               	incf	___awmod@dividend,f
  1570     055B  1903               	skipnz
  1571     055C  0AF3               	incf	___awmod@dividend+1,f
  1572     055D                     l1021:
  1573     055D  3001               	movlw	1
  1574     055E  00F5               	movwf	___awmod@sign
  1575     055F                     l1023:
  1576     055F  1FF1               	btfss	___awmod@divisor+1,7
  1577     0560  2D62               	goto	u511
  1578     0561  2D63               	goto	u510
  1579     0562                     u511:
  1580     0562  2D68               	goto	l1027
  1581     0563                     u510:
  1582     0563                     l1025:
  1583     0563  09F0               	comf	___awmod@divisor,f
  1584     0564  09F1               	comf	___awmod@divisor+1,f
  1585     0565  0AF0               	incf	___awmod@divisor,f
  1586     0566  1903               	skipnz
  1587     0567  0AF1               	incf	___awmod@divisor+1,f
  1588     0568                     l1027:
  1589     0568  0870               	movf	___awmod@divisor,w
  1590     0569  0471               	iorwf	___awmod@divisor+1,w
  1591     056A  1903               	btfsc	3,2
  1592     056B  2D6D               	goto	u521
  1593     056C  2D6E               	goto	u520
  1594     056D                     u521:
  1595     056D  2D9B               	goto	l1045
  1596     056E                     u520:
  1597     056E                     l1029:
  1598     056E  3001               	movlw	1
  1599     056F  00F4               	movwf	___awmod@counter
  1600     0570  2D7A               	goto	l1035
  1601     0571                     l1031:
  1602     0571  3001               	movlw	1
  1603     0572                     u535:
  1604     0572  1003               	clrc
  1605     0573  0DF0               	rlf	___awmod@divisor,f
  1606     0574  0DF1               	rlf	___awmod@divisor+1,f
  1607     0575  3EFF               	addlw	-1
  1608     0576  1D03               	skipz
  1609     0577  2D72               	goto	u535
  1610     0578                     l1033:
  1611     0578  3001               	movlw	1
  1612     0579  07F4               	addwf	___awmod@counter,f
  1613     057A                     l1035:
  1614     057A  1FF1               	btfss	___awmod@divisor+1,7
  1615     057B  2D7D               	goto	u541
  1616     057C  2D7E               	goto	u540
  1617     057D                     u541:
  1618     057D  2D71               	goto	l1031
  1619     057E                     u540:
  1620     057E                     l1037:
  1621     057E  0871               	movf	___awmod@divisor+1,w
  1622     057F  0273               	subwf	___awmod@dividend+1,w
  1623     0580  1D03               	skipz
  1624     0581  2D84               	goto	u555
  1625     0582  0870               	movf	___awmod@divisor,w
  1626     0583  0272               	subwf	___awmod@dividend,w
  1627     0584                     u555:
  1628     0584  1C03               	skipc
  1629     0585  2D87               	goto	u551
  1630     0586  2D88               	goto	u550
  1631     0587                     u551:
  1632     0587  2D8E               	goto	l1041
  1633     0588                     u550:
  1634     0588                     l1039:
  1635     0588  0870               	movf	___awmod@divisor,w
  1636     0589  02F2               	subwf	___awmod@dividend,f
  1637     058A  0871               	movf	___awmod@divisor+1,w
  1638     058B  1C03               	skipc
  1639     058C  03F3               	decf	___awmod@dividend+1,f
  1640     058D  02F3               	subwf	___awmod@dividend+1,f
  1641     058E                     l1041:
  1642     058E  3001               	movlw	1
  1643     058F                     u565:
  1644     058F  1003               	clrc
  1645     0590  0CF1               	rrf	___awmod@divisor+1,f
  1646     0591  0CF0               	rrf	___awmod@divisor,f
  1647     0592  3EFF               	addlw	-1
  1648     0593  1D03               	skipz
  1649     0594  2D8F               	goto	u565
  1650     0595                     l1043:
  1651     0595  3001               	movlw	1
  1652     0596  02F4               	subwf	___awmod@counter,f
  1653     0597  1D03               	btfss	3,2
  1654     0598  2D9A               	goto	u571
  1655     0599  2D9B               	goto	u570
  1656     059A                     u571:
  1657     059A  2D7E               	goto	l1037
  1658     059B                     u570:
  1659     059B                     l1045:
  1660     059B  0875               	movf	___awmod@sign,w
  1661     059C  1903               	btfsc	3,2
  1662     059D  2D9F               	goto	u581
  1663     059E  2DA0               	goto	u580
  1664     059F                     u581:
  1665     059F  2DA5               	goto	l1049
  1666     05A0                     u580:
  1667     05A0                     l1047:
  1668     05A0  09F2               	comf	___awmod@dividend,f
  1669     05A1  09F3               	comf	___awmod@dividend+1,f
  1670     05A2  0AF2               	incf	___awmod@dividend,f
  1671     05A3  1903               	skipnz
  1672     05A4  0AF3               	incf	___awmod@dividend+1,f
  1673     05A5                     l1049:
  1674     05A5  0873               	movf	___awmod@dividend+1,w
  1675     05A6  00F1               	movwf	?___awmod+1
  1676     05A7  0872               	movf	___awmod@dividend,w
  1677     05A8  00F0               	movwf	?___awmod
  1678     05A9                     l326:
  1679     05A9  0008               	return
  1680     05AA                     __end_of___awmod:
  1681                           
  1682                           	psect	text8
  1683     0609                     __ptext8:	
  1684 ;; *************** function ___awdiv *****************
  1685 ;; Defined at:
  1686 ;;		line 5 in file "C:\Program Files\Microchip\xc8\v3.10\pic\sources\c99\common\awdiv.c"
  1687 ;; Parameters:    Size  Location     Type
  1688 ;;  divisor         2    0[COMMON] int 
  1689 ;;  dividend        2    2[COMMON] int 
  1690 ;; Auto vars:     Size  Location     Type
  1691 ;;  quotient        2    6[COMMON] int 
  1692 ;;  sign            1    5[COMMON] unsigned char 
  1693 ;;  counter         1    4[COMMON] unsigned char 
  1694 ;; Return value:  Size  Location     Type
  1695 ;;                  2    0[COMMON] int 
  1696 ;; Registers used:
  1697 ;;		wreg, status,2, status,0
  1698 ;; Tracked objects:
  1699 ;;		On entry : 0/0
  1700 ;;		On exit  : 0/0
  1701 ;;		Unchanged: 0/0
  1702 ;; Data sizes:     COMMON   BANK0   BANK1   BANK3   BANK2
  1703 ;;      Params:         4       0       0       0       0
  1704 ;;      Locals:         4       0       0       0       0
  1705 ;;      Temps:          0       0       0       0       0
  1706 ;;      Totals:         8       0       0       0       0
  1707 ;;Total ram usage:        8 bytes
  1708 ;; Hardware stack levels used: 1
  1709 ;; This function calls:
  1710 ;;		Nothing
  1711 ;; This function is called by:
  1712 ;;		_vfpfcnvrt
  1713 ;; This function uses a non-reentrant model
  1714 ;;
  1715                           
  1716     0609                     ___awdiv:	
  1717                           ;psect for function ___awdiv
  1718                           
  1719     0609                     l971:	
  1720                           ;incstack = 0
  1721                           ; Regs used in ___awdiv: [wreg+status,2+status,0]
  1722                           
  1723     0609  01F5               	clrf	___awdiv@sign
  1724     060A                     l973:
  1725     060A  1FF1               	btfss	___awdiv@divisor+1,7
  1726     060B  2E0D               	goto	u401
  1727     060C  2E0E               	goto	u400
  1728     060D                     u401:
  1729     060D  2E15               	goto	l979
  1730     060E                     u400:
  1731     060E                     l975:
  1732     060E  09F0               	comf	___awdiv@divisor,f
  1733     060F  09F1               	comf	___awdiv@divisor+1,f
  1734     0610  0AF0               	incf	___awdiv@divisor,f
  1735     0611  1903               	skipnz
  1736     0612  0AF1               	incf	___awdiv@divisor+1,f
  1737     0613                     l977:
  1738     0613  3001               	movlw	1
  1739     0614  00F5               	movwf	___awdiv@sign
  1740     0615                     l979:
  1741     0615  1FF3               	btfss	___awdiv@dividend+1,7
  1742     0616  2E18               	goto	u411
  1743     0617  2E19               	goto	u410
  1744     0618                     u411:
  1745     0618  2E20               	goto	l985
  1746     0619                     u410:
  1747     0619                     l981:
  1748     0619  09F2               	comf	___awdiv@dividend,f
  1749     061A  09F3               	comf	___awdiv@dividend+1,f
  1750     061B  0AF2               	incf	___awdiv@dividend,f
  1751     061C  1903               	skipnz
  1752     061D  0AF3               	incf	___awdiv@dividend+1,f
  1753     061E                     l983:
  1754     061E  3001               	movlw	1
  1755     061F  06F5               	xorwf	___awdiv@sign,f
  1756     0620                     l985:
  1757     0620  01F6               	clrf	___awdiv@quotient
  1758     0621  01F7               	clrf	___awdiv@quotient+1
  1759     0622                     l987:
  1760     0622  0870               	movf	___awdiv@divisor,w
  1761     0623  0471               	iorwf	___awdiv@divisor+1,w
  1762     0624  1903               	btfsc	3,2
  1763     0625  2E27               	goto	u421
  1764     0626  2E28               	goto	u420
  1765     0627                     u421:
  1766     0627  2E5D               	goto	l1007
  1767     0628                     u420:
  1768     0628                     l989:
  1769     0628  3001               	movlw	1
  1770     0629  00F4               	movwf	___awdiv@counter
  1771     062A  2E34               	goto	l995
  1772     062B                     l991:
  1773     062B  3001               	movlw	1
  1774     062C                     u435:
  1775     062C  1003               	clrc
  1776     062D  0DF0               	rlf	___awdiv@divisor,f
  1777     062E  0DF1               	rlf	___awdiv@divisor+1,f
  1778     062F  3EFF               	addlw	-1
  1779     0630  1D03               	skipz
  1780     0631  2E2C               	goto	u435
  1781     0632                     l993:
  1782     0632  3001               	movlw	1
  1783     0633  07F4               	addwf	___awdiv@counter,f
  1784     0634                     l995:
  1785     0634  1FF1               	btfss	___awdiv@divisor+1,7
  1786     0635  2E37               	goto	u441
  1787     0636  2E38               	goto	u440
  1788     0637                     u441:
  1789     0637  2E2B               	goto	l991
  1790     0638                     u440:
  1791     0638                     l997:
  1792     0638  3001               	movlw	1
  1793     0639                     u455:
  1794     0639  1003               	clrc
  1795     063A  0DF6               	rlf	___awdiv@quotient,f
  1796     063B  0DF7               	rlf	___awdiv@quotient+1,f
  1797     063C  3EFF               	addlw	-1
  1798     063D  1D03               	skipz
  1799     063E  2E39               	goto	u455
  1800     063F  0871               	movf	___awdiv@divisor+1,w
  1801     0640  0273               	subwf	___awdiv@dividend+1,w
  1802     0641  1D03               	skipz
  1803     0642  2E45               	goto	u465
  1804     0643  0870               	movf	___awdiv@divisor,w
  1805     0644  0272               	subwf	___awdiv@dividend,w
  1806     0645                     u465:
  1807     0645  1C03               	skipc
  1808     0646  2E48               	goto	u461
  1809     0647  2E49               	goto	u460
  1810     0648                     u461:
  1811     0648  2E50               	goto	l1003
  1812     0649                     u460:
  1813     0649                     l999:
  1814     0649  0870               	movf	___awdiv@divisor,w
  1815     064A  02F2               	subwf	___awdiv@dividend,f
  1816     064B  0871               	movf	___awdiv@divisor+1,w
  1817     064C  1C03               	skipc
  1818     064D  03F3               	decf	___awdiv@dividend+1,f
  1819     064E  02F3               	subwf	___awdiv@dividend+1,f
  1820     064F                     l1001:
  1821     064F  1476               	bsf	___awdiv@quotient,0
  1822     0650                     l1003:
  1823     0650  3001               	movlw	1
  1824     0651                     u475:
  1825     0651  1003               	clrc
  1826     0652  0CF1               	rrf	___awdiv@divisor+1,f
  1827     0653  0CF0               	rrf	___awdiv@divisor,f
  1828     0654  3EFF               	addlw	-1
  1829     0655  1D03               	skipz
  1830     0656  2E51               	goto	u475
  1831     0657                     l1005:
  1832     0657  3001               	movlw	1
  1833     0658  02F4               	subwf	___awdiv@counter,f
  1834     0659  1D03               	btfss	3,2
  1835     065A  2E5C               	goto	u481
  1836     065B  2E5D               	goto	u480
  1837     065C                     u481:
  1838     065C  2E38               	goto	l997
  1839     065D                     u480:
  1840     065D                     l1007:
  1841     065D  0875               	movf	___awdiv@sign,w
  1842     065E  1903               	btfsc	3,2
  1843     065F  2E61               	goto	u491
  1844     0660  2E62               	goto	u490
  1845     0661                     u491:
  1846     0661  2E67               	goto	l1011
  1847     0662                     u490:
  1848     0662                     l1009:
  1849     0662  09F6               	comf	___awdiv@quotient,f
  1850     0663  09F7               	comf	___awdiv@quotient+1,f
  1851     0664  0AF6               	incf	___awdiv@quotient,f
  1852     0665  1903               	skipnz
  1853     0666  0AF7               	incf	___awdiv@quotient+1,f
  1854     0667                     l1011:
  1855     0667  0877               	movf	___awdiv@quotient+1,w
  1856     0668  00F1               	movwf	?___awdiv+1
  1857     0669  0876               	movf	___awdiv@quotient,w
  1858     066A  00F0               	movwf	?___awdiv
  1859     066B                     l313:
  1860     066B  0008               	return
  1861     066C                     __end_of___awdiv:
  1862                           
  1863                           	psect	text9
  1864     048F                     __ptext9:	
  1865 ;; *************** function _lcd_init *****************
  1866 ;; Defined at:
  1867 ;;		line 110 in file "TC72TEMP_SENSOR.c"
  1868 ;; Parameters:    Size  Location     Type
  1869 ;;		None
  1870 ;; Auto vars:     Size  Location     Type
  1871 ;;		None
  1872 ;; Return value:  Size  Location     Type
  1873 ;;                  1    wreg      void 
  1874 ;; Registers used:
  1875 ;;		wreg, status,2, status,0, pclath, cstack
  1876 ;; Tracked objects:
  1877 ;;		On entry : 0/0
  1878 ;;		On exit  : 0/0
  1879 ;;		Unchanged: 0/0
  1880 ;; Data sizes:     COMMON   BANK0   BANK1   BANK3   BANK2
  1881 ;;      Params:         0       0       0       0       0
  1882 ;;      Locals:         0       0       0       0       0
  1883 ;;      Temps:          0       0       0       0       0
  1884 ;;      Totals:         0       0       0       0       0
  1885 ;;Total ram usage:        0 bytes
  1886 ;; Hardware stack levels used: 1
  1887 ;; Hardware stack levels required when called: 1
  1888 ;; This function calls:
  1889 ;;		_send_cmd
  1890 ;; This function is called by:
  1891 ;;		_main
  1892 ;; This function uses a non-reentrant model
  1893 ;;
  1894                           
  1895     048F                     _lcd_init:	
  1896                           ;psect for function _lcd_init
  1897                           
  1898     048F                     l1195:	
  1899                           ;incstack = 0
  1900                           ; Regs used in _lcd_init: [wreg+status,2+status,0+pclath+cstack]
  1901                           
  1902                           
  1903                           ;TC72TEMP_SENSOR.c: 112:  send_cmd(0x38);
  1904     048F  3038               	movlw	56
  1905     0490  120A  118A  247A  120A  118A  	fcall	_send_cmd
  1906                           
  1907                           ;TC72TEMP_SENSOR.c: 113:  send_cmd(0x0e);
  1908     0495  300E               	movlw	14
  1909     0496  120A  118A  247A  120A  118A  	fcall	_send_cmd
  1910                           
  1911                           ;TC72TEMP_SENSOR.c: 114:  send_cmd(0x01);
  1912     049B  3001               	movlw	1
  1913     049C  120A  118A  247A  120A  118A  	fcall	_send_cmd
  1914                           
  1915                           ;TC72TEMP_SENSOR.c: 115:  send_cmd(0x06);
  1916     04A1  3006               	movlw	6
  1917     04A2  120A  118A  247A  120A  118A  	fcall	_send_cmd
  1918     04A7                     l54:
  1919     04A7  0008               	return
  1920     04A8                     __end_of_lcd_init:
  1921                           
  1922                           	psect	text10
  1923     047A                     __ptext10:	
  1924 ;; *************** function _send_cmd *****************
  1925 ;; Defined at:
  1926 ;;		line 117 in file "TC72TEMP_SENSOR.c"
  1927 ;; Parameters:    Size  Location     Type
  1928 ;;  b               1    wreg     unsigned char 
  1929 ;; Auto vars:     Size  Location     Type
  1930 ;;  b               1    2[COMMON] unsigned char 
  1931 ;; Return value:  Size  Location     Type
  1932 ;;                  1    wreg      void 
  1933 ;; Registers used:
  1934 ;;		wreg
  1935 ;; Tracked objects:
  1936 ;;		On entry : 0/0
  1937 ;;		On exit  : 0/0
  1938 ;;		Unchanged: 0/0
  1939 ;; Data sizes:     COMMON   BANK0   BANK1   BANK3   BANK2
  1940 ;;      Params:         0       0       0       0       0
  1941 ;;      Locals:         1       0       0       0       0
  1942 ;;      Temps:          2       0       0       0       0
  1943 ;;      Totals:         3       0       0       0       0
  1944 ;;Total ram usage:        3 bytes
  1945 ;; Hardware stack levels used: 1
  1946 ;; This function calls:
  1947 ;;		Nothing
  1948 ;; This function is called by:
  1949 ;;		_lcd_init
  1950 ;;		_main
  1951 ;; This function uses a non-reentrant model
  1952 ;;
  1953                           
  1954     047A                     _send_cmd:	
  1955                           ;psect for function _send_cmd
  1956                           
  1957                           
  1958                           ;incstack = 0
  1959                           ; Regs used in _send_cmd: [wreg]
  1960                           ;send_cmd@b stored from wreg
  1961     047A  00F2               	movwf	send_cmd@b
  1962     047B                     l1133:
  1963                           
  1964                           ;TC72TEMP_SENSOR.c: 117: void send_cmd(char b);TC72TEMP_SENSOR.c: 118: {;TC72TEMP_SENSOR
      +                          .c: 119:     PORTB = b;
  1965     047B  0872               	movf	send_cmd@b,w
  1966     047C  1283               	bcf	3,5	;RP0=0, select bank0
  1967     047D  1303               	bcf	3,6	;RP1=0, select bank0
  1968     047E  0086               	movwf	6	;volatile
  1969     047F                     l1135:
  1970                           
  1971                           ;TC72TEMP_SENSOR.c: 120:     RD0 = 0;
  1972     047F  1008               	bcf	8,0	;volatile
  1973     0480                     l1137:
  1974                           
  1975                           ;TC72TEMP_SENSOR.c: 121:     RD1 = 0;
  1976     0480  1088               	bcf	8,1	;volatile
  1977     0481                     l1139:
  1978                           
  1979                           ;TC72TEMP_SENSOR.c: 122:     RD2 = 1;
  1980     0481  1508               	bsf	8,2	;volatile
  1981                           
  1982                           ;TC72TEMP_SENSOR.c: 123:     _delay((unsigned long)((2)*(20000000/4000.0)));
  1983     0482  300D               	movlw	13
  1984     0483  00F1               	movwf	??_send_cmd+1
  1985     0484  30FB               	movlw	251
  1986     0485  00F0               	movwf	??_send_cmd
  1987     0486                     u807:
  1988     0486  0BF0               	decfsz	??_send_cmd,f
  1989     0487  2C86               	goto	u807
  1990     0488  0BF1               	decfsz	??_send_cmd+1,f
  1991     0489  2C86               	goto	u807
  1992     048A  2C8B               	nop2
  1993     048B                     l1141:
  1994                           
  1995                           ;TC72TEMP_SENSOR.c: 124:     RD2 = 0;
  1996     048B  1283               	bcf	3,5	;RP0=0, select bank0
  1997     048C  1303               	bcf	3,6	;RP1=0, select bank0
  1998     048D  1108               	bcf	8,2	;volatile
  1999     048E                     l57:
  2000     048E  0008               	return
  2001     048F                     __end_of_send_cmd:
  2002                           
  2003                           	psect	text11
  2004     052D                     __ptext11:	
  2005 ;; *************** function _display_data *****************
  2006 ;; Defined at:
  2007 ;;		line 135 in file "TC72TEMP_SENSOR.c"
  2008 ;; Parameters:    Size  Location     Type
  2009 ;;  ptr             2    3[COMMON] PTR unsigned char 
  2010 ;;		 -> main@temp(5), STR_1(16), 
  2011 ;; Auto vars:     Size  Location     Type
  2012 ;;		None
  2013 ;; Return value:  Size  Location     Type
  2014 ;;                  1    wreg      void 
  2015 ;; Registers used:
  2016 ;;		wreg, fsr0l, fsr0h, status,2, status,0, pclath, btemp1, cstack
  2017 ;; Tracked objects:
  2018 ;;		On entry : 0/0
  2019 ;;		On exit  : 0/0
  2020 ;;		Unchanged: 0/0
  2021 ;; Data sizes:     COMMON   BANK0   BANK1   BANK3   BANK2
  2022 ;;      Params:         2       0       0       0       0
  2023 ;;      Locals:         0       0       0       0       0
  2024 ;;      Temps:          0       0       0       0       0
  2025 ;;      Totals:         2       0       0       0       0
  2026 ;;Total ram usage:        2 bytes
  2027 ;; Hardware stack levels used: 1
  2028 ;; Hardware stack levels required when called: 1
  2029 ;; This function calls:
  2030 ;;		_send_data
  2031 ;; This function is called by:
  2032 ;;		_main
  2033 ;; This function uses a non-reentrant model
  2034 ;;
  2035                           
  2036     052D                     _display_data:	
  2037                           ;psect for function _display_data
  2038                           
  2039     052D                     l1197:	
  2040                           ;incstack = 0
  2041                           ; Regs used in _display_data: [wreg-fsr0h+status,2+status,0+pclath+btemp1+cstack]
  2042                           
  2043                           
  2044                           ;TC72TEMP_SENSOR.c: 135: void display_data(char* ptr);TC72TEMP_SENSOR.c: 136: {;TC72TEMP
      +                          _SENSOR.c: 137:     while(*ptr)
  2045     052D  2D42               	goto	l1203
  2046     052E                     l1199:
  2047                           
  2048                           ;TC72TEMP_SENSOR.c: 138:     {;TC72TEMP_SENSOR.c: 139:         send_data(*ptr++);
  2049     052E  0874               	movf	display_data@ptr+1,w
  2050     052F  00FF               	movwf	btemp1
  2051     0530  0873               	movf	display_data@ptr,w
  2052     0531  0084               	movwf	4
  2053     0532  120A  118A  2003  120A  118A  	fcall	stringtab
  2054     0537  120A  118A  2465  120A  118A  	fcall	_send_data
  2055     053C                     l1201:
  2056     053C  3001               	movlw	1
  2057     053D  07F3               	addwf	display_data@ptr,f
  2058     053E  1803               	skipnc
  2059     053F  0AF4               	incf	display_data@ptr+1,f
  2060     0540  3000               	movlw	0
  2061     0541  07F4               	addwf	display_data@ptr+1,f
  2062     0542                     l1203:
  2063                           
  2064                           ;TC72TEMP_SENSOR.c: 137:     while(*ptr)
  2065     0542  0874               	movf	display_data@ptr+1,w
  2066     0543  1283               	bcf	3,5	;RP0=0, select bank0
  2067     0544  1303               	bcf	3,6	;RP1=0, select bank0
  2068     0545  00FF               	movwf	btemp1
  2069     0546  0873               	movf	display_data@ptr,w
  2070     0547  0084               	movwf	4
  2071     0548  120A  118A  2003  120A  118A  	fcall	stringtab
  2072     054D  3A00               	xorlw	0
  2073     054E  1D03               	skipz
  2074     054F  2D51               	goto	u781
  2075     0550  2D52               	goto	u780
  2076     0551                     u781:
  2077     0551  2D2E               	goto	l1199
  2078     0552                     u780:
  2079     0552                     l66:
  2080     0552  0008               	return
  2081     0553                     __end_of_display_data:
  2082                           
  2083                           	psect	text12
  2084     0465                     __ptext12:	
  2085 ;; *************** function _send_data *****************
  2086 ;; Defined at:
  2087 ;;		line 126 in file "TC72TEMP_SENSOR.c"
  2088 ;; Parameters:    Size  Location     Type
  2089 ;;  c               1    wreg     unsigned char 
  2090 ;; Auto vars:     Size  Location     Type
  2091 ;;  c               1    2[COMMON] unsigned char 
  2092 ;; Return value:  Size  Location     Type
  2093 ;;                  1    wreg      void 
  2094 ;; Registers used:
  2095 ;;		wreg
  2096 ;; Tracked objects:
  2097 ;;		On entry : 0/0
  2098 ;;		On exit  : 0/0
  2099 ;;		Unchanged: 0/0
  2100 ;; Data sizes:     COMMON   BANK0   BANK1   BANK3   BANK2
  2101 ;;      Params:         0       0       0       0       0
  2102 ;;      Locals:         1       0       0       0       0
  2103 ;;      Temps:          2       0       0       0       0
  2104 ;;      Totals:         3       0       0       0       0
  2105 ;;Total ram usage:        3 bytes
  2106 ;; Hardware stack levels used: 1
  2107 ;; This function calls:
  2108 ;;		Nothing
  2109 ;; This function is called by:
  2110 ;;		_display_data
  2111 ;; This function uses a non-reentrant model
  2112 ;;
  2113                           
  2114     0465                     _send_data:	
  2115                           ;psect for function _send_data
  2116                           
  2117                           
  2118                           ;incstack = 0
  2119                           ; Regs used in _send_data: [wreg]
  2120                           ;send_data@c stored from wreg
  2121     0465  00F2               	movwf	send_data@c
  2122     0466                     l1143:
  2123                           
  2124                           ;TC72TEMP_SENSOR.c: 126: void send_data(char c);TC72TEMP_SENSOR.c: 127: {;TC72TEMP_SENSO
      +                          R.c: 128:     PORTB = c;
  2125     0466  0872               	movf	send_data@c,w
  2126     0467  1283               	bcf	3,5	;RP0=0, select bank0
  2127     0468  1303               	bcf	3,6	;RP1=0, select bank0
  2128     0469  0086               	movwf	6	;volatile
  2129     046A                     l1145:
  2130                           
  2131                           ;TC72TEMP_SENSOR.c: 129:     RD0 = 1;
  2132     046A  1408               	bsf	8,0	;volatile
  2133     046B                     l1147:
  2134                           
  2135                           ;TC72TEMP_SENSOR.c: 130:     RD1 = 0;
  2136     046B  1088               	bcf	8,1	;volatile
  2137     046C                     l1149:
  2138                           
  2139                           ;TC72TEMP_SENSOR.c: 131:     RD2 = 1;
  2140     046C  1508               	bsf	8,2	;volatile
  2141                           
  2142                           ;TC72TEMP_SENSOR.c: 132:     _delay((unsigned long)((2)*(20000000/4000.0)));
  2143     046D  300D               	movlw	13
  2144     046E  00F1               	movwf	??_send_data+1
  2145     046F  30FB               	movlw	251
  2146     0470  00F0               	movwf	??_send_data
  2147     0471                     u817:
  2148     0471  0BF0               	decfsz	??_send_data,f
  2149     0472  2C71               	goto	u817
  2150     0473  0BF1               	decfsz	??_send_data+1,f
  2151     0474  2C71               	goto	u817
  2152     0475  2C76               	nop2
  2153     0476                     l1151:
  2154                           
  2155                           ;TC72TEMP_SENSOR.c: 133:     RD2 = 0;
  2156     0476  1283               	bcf	3,5	;RP0=0, select bank0
  2157     0477  1303               	bcf	3,6	;RP1=0, select bank0
  2158     0478  1108               	bcf	8,2	;volatile
  2159     0479                     l60:
  2160     0479  0008               	return
  2161     047A                     __end_of_send_data:
  2162                           
  2163                           	psect	text13
  2164     04C6                     __ptext13:	
  2165 ;; *************** function _TC72_read_temperature *****************
  2166 ;; Defined at:
  2167 ;;		line 96 in file "TC72TEMP_SENSOR.c"
  2168 ;; Parameters:    Size  Location     Type
  2169 ;;		None
  2170 ;; Auto vars:     Size  Location     Type
  2171 ;;  temp            1    3[COMMON] unsigned char 
  2172 ;; Return value:  Size  Location     Type
  2173 ;;                  1    wreg      unsigned char 
  2174 ;; Registers used:
  2175 ;;		wreg, status,2, status,0, pclath, cstack
  2176 ;; Tracked objects:
  2177 ;;		On entry : 0/0
  2178 ;;		On exit  : 0/0
  2179 ;;		Unchanged: 0/0
  2180 ;; Data sizes:     COMMON   BANK0   BANK1   BANK3   BANK2
  2181 ;;      Params:         0       0       0       0       0
  2182 ;;      Locals:         1       0       0       0       0
  2183 ;;      Temps:          2       0       0       0       0
  2184 ;;      Totals:         3       0       0       0       0
  2185 ;;Total ram usage:        3 bytes
  2186 ;; Hardware stack levels used: 1
  2187 ;; Hardware stack levels required when called: 1
  2188 ;; This function calls:
  2189 ;;		_SPI_master_read
  2190 ;;		_SPI_master_write
  2191 ;; This function is called by:
  2192 ;;		_main
  2193 ;; This function uses a non-reentrant model
  2194 ;;
  2195                           
  2196     04C6                     _TC72_read_temperature:	
  2197                           ;psect for function _TC72_read_temperature
  2198                           
  2199     04C6                     l1179:	
  2200                           ;incstack = 0
  2201                           ; Regs used in _TC72_read_temperature: [wreg+status,2+status,0+pclath+cstack]
  2202                           
  2203                           
  2204                           ;TC72TEMP_SENSOR.c: 98:     unsigned char temp;;TC72TEMP_SENSOR.c: 99:     RC0 = 0;
  2205     04C6  1283               	bcf	3,5	;RP0=0, select bank0
  2206     04C7  1303               	bcf	3,6	;RP1=0, select bank0
  2207     04C8  1007               	bcf	7,0	;volatile
  2208     04C9                     l1181:
  2209                           
  2210                           ;TC72TEMP_SENSOR.c: 100:     _delay((unsigned long)((1)*(20000000/4000.0)));
  2211     04C9  3007               	movlw	7
  2212     04CA  00F2               	movwf	??_TC72_read_temperature+1
  2213     04CB  307D               	movlw	125
  2214     04CC  00F1               	movwf	??_TC72_read_temperature
  2215     04CD                     u827:
  2216     04CD  0BF1               	decfsz	??_TC72_read_temperature,f
  2217     04CE  2CCD               	goto	u827
  2218     04CF  0BF2               	decfsz	??_TC72_read_temperature+1,f
  2219     04D0  2CCD               	goto	u827
  2220     04D1                     l1183:
  2221                           
  2222                           ;TC72TEMP_SENSOR.c: 101:     RC0 = 1;
  2223     04D1  1283               	bcf	3,5	;RP0=0, select bank0
  2224     04D2  1303               	bcf	3,6	;RP1=0, select bank0
  2225     04D3  1407               	bsf	7,0	;volatile
  2226     04D4                     l1185:
  2227                           
  2228                           ;TC72TEMP_SENSOR.c: 103:      SPI_master_write(0x02);
  2229     04D4  3002               	movlw	2
  2230     04D5  120A  118A  2449  120A  118A  	fcall	_SPI_master_write
  2231     04DA                     l1187:
  2232                           
  2233                           ;TC72TEMP_SENSOR.c: 104:      temp = SPI_master_read();
  2234     04DA  120A  118A  243F  120A  118A  	fcall	_SPI_master_read
  2235     04DF  00F3               	movwf	TC72_read_temperature@temp
  2236     04E0                     l1189:
  2237                           
  2238                           ;TC72TEMP_SENSOR.c: 105:      RC0 = 0;
  2239     04E0  1283               	bcf	3,5	;RP0=0, select bank0
  2240     04E1  1303               	bcf	3,6	;RP1=0, select bank0
  2241     04E2  1007               	bcf	7,0	;volatile
  2242     04E3                     l1191:
  2243                           
  2244                           ;TC72TEMP_SENSOR.c: 106:      return temp;
  2245     04E3  0873               	movf	TC72_read_temperature@temp,w
  2246     04E4                     l51:
  2247     04E4  0008               	return
  2248     04E5                     __end_of_TC72_read_temperature:
  2249                           
  2250                           	psect	text14
  2251     043F                     __ptext14:	
  2252 ;; *************** function _SPI_master_read *****************
  2253 ;; Defined at:
  2254 ;;		line 78 in file "TC72TEMP_SENSOR.c"
  2255 ;; Parameters:    Size  Location     Type
  2256 ;;		None
  2257 ;; Auto vars:     Size  Location     Type
  2258 ;;		None
  2259 ;; Return value:  Size  Location     Type
  2260 ;;                  1    wreg      unsigned char 
  2261 ;; Registers used:
  2262 ;;		wreg, status,2
  2263 ;; Tracked objects:
  2264 ;;		On entry : 0/0
  2265 ;;		On exit  : 0/0
  2266 ;;		Unchanged: 0/0
  2267 ;; Data sizes:     COMMON   BANK0   BANK1   BANK3   BANK2
  2268 ;;      Params:         0       0       0       0       0
  2269 ;;      Locals:         0       0       0       0       0
  2270 ;;      Temps:          0       0       0       0       0
  2271 ;;      Totals:         0       0       0       0       0
  2272 ;;Total ram usage:        0 bytes
  2273 ;; Hardware stack levels used: 1
  2274 ;; This function calls:
  2275 ;;		Nothing
  2276 ;; This function is called by:
  2277 ;;		_TC72_read_temperature
  2278 ;; This function uses a non-reentrant model
  2279 ;;
  2280                           
  2281     043F                     _SPI_master_read:	
  2282                           ;psect for function _SPI_master_read
  2283                           
  2284     043F                     l1127:	
  2285                           ;incstack = 0
  2286                           ; Regs used in _SPI_master_read: [wreg+status,2]
  2287                           
  2288                           
  2289                           ;TC72TEMP_SENSOR.c: 80:     SSPBUF = 0x00 ;
  2290     043F  1283               	bcf	3,5	;RP0=0, select bank0
  2291     0440  1303               	bcf	3,6	;RP1=0, select bank0
  2292     0441  0193               	clrf	19	;volatile
  2293     0442                     l42:	
  2294                           ;TC72TEMP_SENSOR.c: 81:     while(SSPIF == 0);
  2295                           
  2296     0442  1D8C               	btfss	12,3	;volatile
  2297     0443  2C45               	goto	u761
  2298     0444  2C46               	goto	u760
  2299     0445                     u761:
  2300     0445  2C42               	goto	l42
  2301     0446                     u760:
  2302     0446                     l44:
  2303                           
  2304                           ;TC72TEMP_SENSOR.c: 82:     SSPIF = 0;
  2305     0446  118C               	bcf	12,3	;volatile
  2306     0447                     l1129:
  2307                           
  2308                           ;TC72TEMP_SENSOR.c: 83:     return SSPBUF;
  2309     0447  0813               	movf	19,w	;volatile
  2310     0448                     l45:
  2311     0448  0008               	return
  2312     0449                     __end_of_SPI_master_read:
  2313                           
  2314                           	psect	text15
  2315     04A8                     __ptext15:	
  2316 ;; *************** function _TC72_init *****************
  2317 ;; Defined at:
  2318 ;;		line 85 in file "TC72TEMP_SENSOR.c"
  2319 ;; Parameters:    Size  Location     Type
  2320 ;;		None
  2321 ;; Auto vars:     Size  Location     Type
  2322 ;;		None
  2323 ;; Return value:  Size  Location     Type
  2324 ;;                  1    wreg      void 
  2325 ;; Registers used:
  2326 ;;		wreg, status,2, status,0, pclath, cstack
  2327 ;; Tracked objects:
  2328 ;;		On entry : 0/0
  2329 ;;		On exit  : 0/0
  2330 ;;		Unchanged: 0/0
  2331 ;; Data sizes:     COMMON   BANK0   BANK1   BANK3   BANK2
  2332 ;;      Params:         0       0       0       0       0
  2333 ;;      Locals:         0       0       0       0       0
  2334 ;;      Temps:          2       0       0       0       0
  2335 ;;      Totals:         2       0       0       0       0
  2336 ;;Total ram usage:        2 bytes
  2337 ;; Hardware stack levels used: 1
  2338 ;; Hardware stack levels required when called: 1
  2339 ;; This function calls:
  2340 ;;		_SPI_master_write
  2341 ;; This function is called by:
  2342 ;;		_main
  2343 ;; This function uses a non-reentrant model
  2344 ;;
  2345                           
  2346     04A8                     _TC72_init:	
  2347                           ;psect for function _TC72_init
  2348                           
  2349     04A8                     l1167:	
  2350                           ;incstack = 0
  2351                           ; Regs used in _TC72_init: [wreg+status,2+status,0+pclath+cstack]
  2352                           
  2353                           
  2354                           ;TC72TEMP_SENSOR.c: 87:     RC0 = 0;
  2355     04A8  1283               	bcf	3,5	;RP0=0, select bank0
  2356     04A9  1303               	bcf	3,6	;RP1=0, select bank0
  2357     04AA  1007               	bcf	7,0	;volatile
  2358     04AB                     l1169:
  2359                           
  2360                           ;TC72TEMP_SENSOR.c: 88:     _delay((unsigned long)((1)*(20000000/4000.0)));
  2361     04AB  3007               	movlw	7
  2362     04AC  00F2               	movwf	??_TC72_init+1
  2363     04AD  307D               	movlw	125
  2364     04AE  00F1               	movwf	??_TC72_init
  2365     04AF                     u837:
  2366     04AF  0BF1               	decfsz	??_TC72_init,f
  2367     04B0  2CAF               	goto	u837
  2368     04B1  0BF2               	decfsz	??_TC72_init+1,f
  2369     04B2  2CAF               	goto	u837
  2370     04B3                     l1171:
  2371                           
  2372                           ;TC72TEMP_SENSOR.c: 89:     RC0 = 1;
  2373     04B3  1283               	bcf	3,5	;RP0=0, select bank0
  2374     04B4  1303               	bcf	3,6	;RP1=0, select bank0
  2375     04B5  1407               	bsf	7,0	;volatile
  2376     04B6                     l1173:
  2377                           
  2378                           ;TC72TEMP_SENSOR.c: 91:     SPI_master_write(0x80);
  2379     04B6  3080               	movlw	128
  2380     04B7  120A  118A  2449  120A  118A  	fcall	_SPI_master_write
  2381     04BC                     l1175:
  2382                           
  2383                           ;TC72TEMP_SENSOR.c: 92:     SPI_master_write(0x00);
  2384     04BC  3000               	movlw	0
  2385     04BD  120A  118A  2449  120A  118A  	fcall	_SPI_master_write
  2386     04C2                     l1177:
  2387                           
  2388                           ;TC72TEMP_SENSOR.c: 94:     RC0 = 0;
  2389     04C2  1283               	bcf	3,5	;RP0=0, select bank0
  2390     04C3  1303               	bcf	3,6	;RP1=0, select bank0
  2391     04C4  1007               	bcf	7,0	;volatile
  2392     04C5                     l48:
  2393     04C5  0008               	return
  2394     04C6                     __end_of_TC72_init:
  2395                           
  2396                           	psect	text16
  2397     0449                     __ptext16:	
  2398 ;; *************** function _SPI_master_write *****************
  2399 ;; Defined at:
  2400 ;;		line 71 in file "TC72TEMP_SENSOR.c"
  2401 ;; Parameters:    Size  Location     Type
  2402 ;;  a               1    wreg     unsigned char 
  2403 ;; Auto vars:     Size  Location     Type
  2404 ;;  a               1    0[COMMON] unsigned char 
  2405 ;; Return value:  Size  Location     Type
  2406 ;;                  1    wreg      void 
  2407 ;; Registers used:
  2408 ;;		wreg
  2409 ;; Tracked objects:
  2410 ;;		On entry : 0/0
  2411 ;;		On exit  : 0/0
  2412 ;;		Unchanged: 0/0
  2413 ;; Data sizes:     COMMON   BANK0   BANK1   BANK3   BANK2
  2414 ;;      Params:         0       0       0       0       0
  2415 ;;      Locals:         1       0       0       0       0
  2416 ;;      Temps:          0       0       0       0       0
  2417 ;;      Totals:         1       0       0       0       0
  2418 ;;Total ram usage:        1 bytes
  2419 ;; Hardware stack levels used: 1
  2420 ;; This function calls:
  2421 ;;		Nothing
  2422 ;; This function is called by:
  2423 ;;		_TC72_init
  2424 ;;		_TC72_read_temperature
  2425 ;; This function uses a non-reentrant model
  2426 ;;
  2427                           
  2428     0449                     _SPI_master_write:	
  2429                           ;psect for function _SPI_master_write
  2430                           
  2431                           
  2432                           ;incstack = 0
  2433                           ; Regs used in _SPI_master_write: [wreg]
  2434                           ;SPI_master_write@a stored from wreg
  2435     0449  00F0               	movwf	SPI_master_write@a
  2436     044A                     l1125:
  2437                           
  2438                           ;TC72TEMP_SENSOR.c: 71: void SPI_master_write(unsigned char a);TC72TEMP_SENSOR.c: 72: {;
      +                          TC72TEMP_SENSOR.c: 73:     SSPBUF = a;
  2439     044A  0870               	movf	SPI_master_write@a,w
  2440     044B  1283               	bcf	3,5	;RP0=0, select bank0
  2441     044C  1303               	bcf	3,6	;RP1=0, select bank0
  2442     044D  0093               	movwf	19	;volatile
  2443     044E                     l36:	
  2444                           ;TC72TEMP_SENSOR.c: 74:     while(SSPIF == 0);
  2445                           
  2446     044E  1D8C               	btfss	12,3	;volatile
  2447     044F  2C51               	goto	u751
  2448     0450  2C52               	goto	u750
  2449     0451                     u751:
  2450     0451  2C4E               	goto	l36
  2451     0452                     u750:
  2452     0452                     l38:
  2453                           
  2454                           ;TC72TEMP_SENSOR.c: 75:     SSPIF = 0;
  2455     0452  118C               	bcf	12,3	;volatile
  2456     0453                     l39:
  2457     0453  0008               	return
  2458     0454                     __end_of_SPI_master_write:
  2459                           
  2460                           	psect	text17
  2461     042F                     __ptext17:	
  2462 ;; *************** function _SPI_master_init *****************
  2463 ;; Defined at:
  2464 ;;		line 65 in file "TC72TEMP_SENSOR.c"
  2465 ;; Parameters:    Size  Location     Type
  2466 ;;		None
  2467 ;; Auto vars:     Size  Location     Type
  2468 ;;		None
  2469 ;; Return value:  Size  Location     Type
  2470 ;;                  1    wreg      void 
  2471 ;; Registers used:
  2472 ;;		status,2
  2473 ;; Tracked objects:
  2474 ;;		On entry : 0/0
  2475 ;;		On exit  : 0/0
  2476 ;;		Unchanged: 0/0
  2477 ;; Data sizes:     COMMON   BANK0   BANK1   BANK3   BANK2
  2478 ;;      Params:         0       0       0       0       0
  2479 ;;      Locals:         0       0       0       0       0
  2480 ;;      Temps:          0       0       0       0       0
  2481 ;;      Totals:         0       0       0       0       0
  2482 ;;Total ram usage:        0 bytes
  2483 ;; Hardware stack levels used: 1
  2484 ;; This function calls:
  2485 ;;		Nothing
  2486 ;; This function is called by:
  2487 ;;		_main
  2488 ;; This function uses a non-reentrant model
  2489 ;;
  2490                           
  2491     042F                     _SPI_master_init:	
  2492                           ;psect for function _SPI_master_init
  2493                           
  2494     042F                     l1163:	
  2495                           ;incstack = 0
  2496                           ; Regs used in _SPI_master_init: [status,2]
  2497                           
  2498                           
  2499                           ;TC72TEMP_SENSOR.c: 67:     SSPCON = 0x20;
  2500     042F  3020               	movlw	32
  2501     0430  1283               	bcf	3,5	;RP0=0, select bank0
  2502     0431  1303               	bcf	3,6	;RP1=0, select bank0
  2503     0432  0094               	movwf	20	;volatile
  2504     0433                     l1165:
  2505                           
  2506                           ;TC72TEMP_SENSOR.c: 68:     SSPSTAT = 0x00;
  2507     0433  1683               	bsf	3,5	;RP0=1, select bank1
  2508     0434  1303               	bcf	3,6	;RP1=0, select bank1
  2509     0435  0194               	clrf	20	;volatile
  2510     0436                     l33:
  2511     0436  0008               	return
  2512     0437                     __end_of_SPI_master_init:
  2513     0002                     ___latbits      equ	2
  2514     007E                     btemp           set	126	;btemp
  2515     007E                     btemp0          set	126
  2516     007F                     btemp1          set	127
  2517     007E                     wtemp0          set	126
  2518     007F                     wtemp0a         set	127
  2519     007F                     ttemp0a         set	127
  2520     0080                     ltemp0a         set	128
  2521                           
  2522                           	psect	config
  2523                           
  2524                           ;Config register CONFIG @ 0x2007
  2525                           ;	Oscillator Selection bits
  2526                           ;	FOSC = HS, HS oscillator
  2527                           ;	Watchdog Timer Enable bit
  2528                           ;	WDTE = OFF, WDT disabled
  2529                           ;	Power-up Timer Enable bit
  2530                           ;	PWRTE = OFF, PWRT disabled
  2531                           ;	Brown-out Reset Enable bit
  2532                           ;	BOREN = OFF, BOR disabled
  2533                           ;	Low-Voltage (Single-Supply) In-Circuit Serial Programming Enable bit
  2534                           ;	LVP = OFF, RB3 is digital I/O, HV on MCLR must be used for programming
  2535                           ;	Data EEPROM Memory Code Protection bit
  2536                           ;	CPD = OFF, Data EEPROM code protection off
  2537                           ;	Flash Program Memory Write Enable bits
  2538                           ;	WRT = OFF, Write protection off; all program memory may be written to by EECON control
  2539                           ;	In-Circuit Debugger Mode bit
  2540                           ;	DEBUG = 0x1, unprogrammed default
  2541                           ;	Flash Program Memory Code Protection bit
  2542                           ;	CP = OFF, Code protection off
  2543     2007                     	org	8199
  2544     2007  3F3A               	dw	16186

Data Sizes:
    Strings     19
    Constant    0
    Data        0
    BSS         37
    Persistent  0
    Stack       0

Auto Spaces:
    Space          Size  Autos    Used
    COMMON           14     14      14
    BANK0            80     44      49
    BANK1            80      0      32
    BANK3            96      0       0
    BANK2            96      0       0

Pointer List with Targets:

    display_data@ptr	PTR unsigned char  size(2) Largest target is 16
		 -> main@temp(BANK0[5]), STR_1(CODE[16]), 

    f$.$buffer	PTR unsigned char  size(2) Largest target is 5
		 -> main@temp(BANK0[5]), 

    f$.$source	PTR const unsigned char  size(1) Largest target is 0

    fputc@fp	PTR struct _IO_FILE size(2) Largest target is 11
		 -> sprintf@f(BANK0[11]), 

    fputc@fp$.$buffer	PTR unsigned char  size(2) Largest target is 5
		 -> main@temp(BANK0[5]), 

    fputc@fp$.$source	PTR const unsigned char  size(1) Largest target is 0

    S523$buffer	PTR unsigned char  size(2) Largest target is 5
		 -> main@temp(BANK0[5]), 

    S523$source	PTR const unsigned char  size(1) Largest target is 0

    sprintf@ap	PTR void [1] size(1) Largest target is 2
		 -> ?_sprintf(BANK0[2]), 

    sprintf@fmt	PTR const unsigned char  size(1) Largest target is 3
		 -> STR_2(CODE[3]), 

    sprintf@s	PTR unsigned char  size(1) Largest target is 5
		 -> main@temp(BANK0[5]), 

    vfpfcnvrt@ap	PTR PTR void  size(1) Largest target is 1
		 -> sprintf@ap(BANK0[1]), 

    vfpfcnvrt@cp	PTR unsigned char  size(1) Largest target is 3
		 -> STR_2(CODE[3]), 

    vfpfcnvrt@fmt	PTR PTR unsigned char  size(1) Largest target is 1
		 -> vfprintf@cfmt(COMMON[1]), 

    vfpfcnvrt@fp	PTR struct _IO_FILE size(2) Largest target is 11
		 -> sprintf@f(BANK0[11]), 

    vfprintf@ap	PTR PTR void  size(1) Largest target is 1
		 -> sprintf@ap(BANK0[1]), 

    vfprintf@cfmt	PTR unsigned char  size(1) Largest target is 3
		 -> STR_2(CODE[3]), 

    vfprintf@fmt	PTR const unsigned char  size(1) Largest target is 3
		 -> STR_2(CODE[3]), 

    vfprintf@fp	PTR struct _IO_FILE size(2) Largest target is 11
		 -> sprintf@f(BANK0[11]), 


Critical Paths under _main in COMMON

    _sprintf->_vfprintf
    _vfpfcnvrt->_fputc
    _abs->___awmod
    _lcd_init->_send_cmd
    _display_data->_send_data
    _TC72_read_temperature->_SPI_master_write
    _TC72_init->_SPI_master_write

Critical Paths under _main in BANK0

    _main->_sprintf
    _sprintf->_vfprintf
    _vfprintf->_vfpfcnvrt

Critical Paths under _main in BANK1

    None.

Critical Paths under _main in BANK3

    None.

Critical Paths under _main in BANK2

    None.

Call Graph Tables:

 ---------------------------------------------------------------------------------
 (Depth) Function   	        Calls       Base Space   Used Autos Params    Refs
 ---------------------------------------------------------------------------------
 (0) _main                                                10    10      0    2052
                                             34 BANK0     10    10      0
                    _SPI_master_init
                          _TC72_init
              _TC72_read_temperature
                       _display_data
                           _lcd_init
                           _send_cmd
                            _sprintf
 ---------------------------------------------------------------------------------
 (1) _sprintf                                             19    15      4    1764
                                             17 BANK0     17    13      4
                           _vfprintf
 ---------------------------------------------------------------------------------
 (2) _vfprintf                                             5     1      4    1559
                                             13 COMMON     1     1      0
                                             13 BANK0      4     0      4
                          _vfpfcnvrt
 ---------------------------------------------------------------------------------
 (3) _vfpfcnvrt                                           13     9      4    1434
                                              0 BANK0     13     9      4
                            ___awdiv
                            ___awmod
                                _abs
                              _fputc
 ---------------------------------------------------------------------------------
 (4) _fputc                                               13     9      4     230
                                              0 COMMON    13     9      4
                              _putch
 ---------------------------------------------------------------------------------
 (5) _putch                                                1     1      0       0
 ---------------------------------------------------------------------------------
 (4) _abs                                                  4     2      2      67
                                              6 COMMON     4     2      2
                            ___awmod (ARG)
 ---------------------------------------------------------------------------------
 (4) ___awmod                                              6     2      4     298
                                              0 COMMON     6     2      4
 ---------------------------------------------------------------------------------
 (4) ___awdiv                                              8     4      4     302
                                              0 COMMON     8     4      4
 ---------------------------------------------------------------------------------
 (1) _lcd_init                                             0     0      0      29
                           _send_cmd
 ---------------------------------------------------------------------------------
 (2) _send_cmd                                             3     3      0      29
                                              0 COMMON     3     3      0
 ---------------------------------------------------------------------------------
 (1) _display_data                                         2     0      2      76
                                              3 COMMON     2     0      2
                          _send_data
 ---------------------------------------------------------------------------------
 (2) _send_data                                            3     3      0      29
                                              0 COMMON     3     3      0
 ---------------------------------------------------------------------------------
 (1) _TC72_read_temperature                                3     3      0      52
                                              1 COMMON     3     3      0
                    _SPI_master_read
                   _SPI_master_write
 ---------------------------------------------------------------------------------
 (2) _SPI_master_read                                      0     0      0       0
 ---------------------------------------------------------------------------------
 (1) _TC72_init                                            2     2      0      29
                                              1 COMMON     2     2      0
                   _SPI_master_write
 ---------------------------------------------------------------------------------
 (2) _SPI_master_write                                     1     1      0      29
                                              0 COMMON     1     1      0
 ---------------------------------------------------------------------------------
 (1) _SPI_master_init                                      0     0      0       0
 ---------------------------------------------------------------------------------
 Estimated maximum stack depth 5
 ---------------------------------------------------------------------------------

 Call Graph Graphs:

 _main (ROOT)
   _SPI_master_init
   _TC72_init
     _SPI_master_write
   _TC72_read_temperature
     _SPI_master_read
     _SPI_master_write
   _display_data
     _send_data
   _lcd_init
     _send_cmd
   _send_cmd
   _sprintf
     _vfprintf
       _vfpfcnvrt
         ___awdiv
         ___awmod
         _abs
           ___awmod (ARG)
         _fputc
           _putch

Address spaces:
Name               Size   Autos  Total    Usage
BITCOMMON           14      0       0      0.0%
BITBANK0            80      0       0      0.0%
BITBANK1            80      0       0      0.0%
BITBANK3            96      0       0      0.0%
BITBANK2            96      0       0      0.0%
COMMON              14     14      14    100.0%
BANK0               80     44      49     61.3%
BANK1               80      0      32     40.0%
BANK3               96      0       0      0.0%
BANK2               96      0       0      0.0%
STACK                0      0       0      0.0%
DATA                 0      0      95      0.0%


Microchip Technology PIC Macro Assembler V3.10 build 20250813170317 
Symbol Table                                                                                   Wed Dec 17 12:45:05 2025

                            pc 0002                             l33 0436                             l42 0442  
                           l51 04E4                             l36 044E                             l44 0446  
                           l60 0479                             l45 0448                             l38 0452  
                           l54 04A7                             l39 0453                             l48 04C5  
                           l57 048E                             l66 0552                   ___awdiv@sign 0075  
                           fsr 0004                  ?_display_data 0073                            l313 066B  
                          l326 05A9                            l623 0507                            l661 07EB  
                          l674 0464                            l667 052C                            l686 0705  
                          l697 042E                            l971 0609                            l981 0619  
                          l973 060A                            l991 062B                            l983 061E  
                          l975 060E                            l993 0632                            l985 0620  
                          l977 0613                            l995 0634                            l987 0622  
                          l979 0615                            l997 0638                            l989 0628  
                          l999 0649                            _RC0 0038                            _RD0 0040  
                          _RD1 0041                            _RD2 0042                            u400 060E  
                          u401 060D                            u410 0619                            u411 0618  
                          u420 0628                            u500 0558                            u421 0627  
                          u501 0557                            u510 0563                            u511 0562  
                          u440 0638                            u520 056E                            u600 0678  
                          u441 0637                            u521 056D                            u601 0677  
                          u610 0697                            u435 062C                            u611 0696  
                          u460 0649                            u540 057E                            u620 06C9  
                          u700 0794                            u461 0648                            u541 057D  
                          u621 06C8                            u701 0793                            u550 0588  
                          u630 06EA                            u710 0799                            u455 0639  
                          u551 0587                            u535 0572                            u711 0798  
                          u480 065D                            u640 0458                            u720 079E  
                          u481 065C                            u465 0645                            u641 0457  
                          u625 06C5                            u721 079D                            u490 0662  
                          u570 059B                            u730 07A3                            u650 0716  
                          u491 0661                            u475 0651                            u571 059A  
                          u555 0584                            u731 07A2                            u651 0715  
                          u580 05A0                            u740 07CA                            u660 0732  
                          u581 059F                            u565 058F                            u741 07C9  
                          u661 0731                            u750 0452                            u590 0672  
                          u670 073E                            u751 0451                            u807 0486  
                          u591 0671                            u671 073D                            u760 0446  
                          u680 0758                            u761 0445                            u817 0471  
                          u681 0756                            u690 0759                            u770 0528  
                          u827 04CD                            u771 0527                            u780 0552  
                          u837 04AF                            u781 0551                            u797 05D6  
                          _abs 0454                            fsr0 0004                            indf 0000  
                 ___awmod@sign 0075                           l1001 064F                           l1011 0667  
                         l1003 0650                           l1005 0657                           l1021 055D  
                         l1101 0794                           l1007 065D                           l1031 0571  
                         l1023 055F                           l1015 0553                           l1111 07C0  
                         l1103 0799                           l1201 053C                           l1009 0662  
                         l1041 058E                           l1033 0578                           l1025 0563  
                         l1017 0554                           l1105 079E                           l1113 07C4  
                         l1203 0542                           l1043 0595                           l1035 057A  
                         l1027 0568                           l1019 0558                           l1107 07A3  
                         l1115 07CB                           l1211 04EF                           ?_abs 0076  
                         l1125 044A                           l1141 048B                           l1133 047B  
                         l1037 057E                           l1029 056E                           l1045 059B  
                         l1061 0697                           l1053 066C                           l1109 07AC  
                         l1213 04F1                           l1205 04E5                           l1221 05AE  
                         l1127 043F                           l1151 0476                           l1143 0466  
                         l1135 047F                           l1047 05A0                           l1039 0588  
                         l1071 0459                           l1063 06C9                           l1055 0672  
                         l1119 07D2                           l1215 04FE                           l1207 04E9  
                         l1231 05C5                           l1223 05B0                           l1129 0447  
                         l1145 046A                           l1137 0480                           l1049 05A5  
                         l1057 0678                           l1081 071E                           l1153 0508  
                         l1209 04ED                           l1241 05FC                           l1233 05CE  
                         l1225 05B5                           l1163 042F                           l1171 04B3  
                         l1147 046B                           l1139 0481                           l1067 0454  
                         l1059 067F                           l1091 0751                           l1083 0722  
                         l1075 0706                           l1155 050D                           l1235 05DC  
                         l1227 05BA                           l1219 05AA                           l1165 0433  
                         l1173 04B6                           l1181 04C9                           l1149 046C  
                         l1069 0458                           l1093 0753                           l1085 0726  
                         l1077 0716                           l1157 051C                           l1237 05E9  
                         l1229 05BF                           l1175 04BC                           l1167 04A8  
                         l1191 04E3                           l1183 04D1                           l1095 075A  
                         l1087 0732                           l1079 071A                           l1159 0528  
                         l1239 05F6                           l1177 04C2                           l1169 04AB  
                         l1185 04D4                           l1097 0779                           l1089 073E  
                         l1187 04DA                           l1179 04C6                           l1195 048F  
                         l1099 078E                           l1189 04E0                           l1197 052D  
                         l1199 052E                           STR_1 0013                           STR_2 0023  
                         abs@a 0076                           _dbuf 00A0                           _main 05AA  
                         _prec 004E                           btemp 007E                           start 0000  
                        ??_abs 0078                 ??_display_data 0075                          ?_main 0070  
              __end_of___awdiv 066C                __end_of___awmod 05AA                ___awdiv@divisor 0070  
              ___awdiv@counter 0074                   vfpfcnvrt@fmt 0022                          _PORTB 0006  
                        _TRISB 0086                          _TRISC 0087                          _TRISD 0088  
                        _SSPIF 0063                          _flags 0050        ??_TC72_read_temperature 0071  
             _SPI_master_write 0449                          _fputc 066C                          btemp0 007E  
                        btemp1 007F                          _width 004C                          _putch 042E  
                        pclath 000A                          status 0003                          wtemp0 007E  
              __end_of_sprintf 0508                __initialization 07EC                   __end_of_main 0609  
                       ??_main 0042              __end_of_TC72_init 04C6                         ?_fputc 0070  
             ___awdiv@dividend 0072                         ?_putch 0070                  vfpfcnvrt@done 0026  
                       _SSPCON 0014                         _SSPBUF 0013                   vfprintf@cfmt 007D  
             __end_of_lcd_init 04A8                      ??___awdiv 0074                      ??___awmod 0074  
             ___awdiv@quotient 0076                ___awmod@divisor 0070                ___awmod@counter 0074  
             __end_of_send_cmd 048F                         fputc@c 0070                         ltemp0a 0080  
                       putch@c 0070                         ttemp0a 007F               __end_of_vfprintf 052D  
                    ??_sprintf 0035                         wtemp0a 007F        __end_of__initialization 07FC  
         __end_of_display_data 0553                 __pcstackCOMMON 0070                  __end_of_fputc 0706  
                __end_of_putch 042F                        ??_fputc 0074              ??_SPI_master_init 0070  
            ??_SPI_master_read 0070                        ??_putch 0070                     __pbssBANK0 004C  
                   __pbssBANK1 00A0                     __pmaintext 05AA       __end_of_SPI_master_write 0454  
                    ?_lcd_init 0070                        _SSPSTAT 0094                     __stringtab 0003  
__end_of_TC72_read_temperature 04E5                      ?_send_cmd 0070                        ___awdiv 0609  
                      ___awmod 0553                      ?_vfprintf 002D                        __ptext1 04E5  
                      __ptext2 0508                        __ptext3 0706                        __ptext4 066C  
                      __ptext5 042E                        __ptext6 0454                        __ptext7 0553  
                      __ptext8 0609                        __ptext9 048F               ___awmod@dividend 0072  
                    _TC72_init 04A8                        _sprintf 04E5                        clrloop0 0438  
                   ??_lcd_init 0073           end_of_initialization 07FC              __end_of_send_data 047A  
                      fputc@fp 0072                     ??_send_cmd 0070              __end_of_vfpfcnvrt 07EC  
             vfpfcnvrt@convarg 0028                     ??_vfprintf 007D                   _display_data 052D  
                   ?_TC72_init 0070                     main@result 004A                    vfpfcnvrt@ap 0023  
                  vfpfcnvrt@cp 0027                    vfpfcnvrt@fp 0020                _SPI_master_init 042F  
              _SPI_master_read 043F            start_initialization 07EC                    __end_of_abs 0465  
                  vfprintf@fmt 002F              ?_SPI_master_write 0070             ??_SPI_master_write 0070  
                    ___latbits 0002                  __pcstackBANK0 0020                    ??_TC72_init 0071  
      __end_of_SPI_master_init 0437        __end_of_SPI_master_read 0449                       ?___awdiv 0070  
                     ?___awmod 0070                      __pstrings 0003                     send_data@c 0072  
                     ?_sprintf 0031          _TC72_read_temperature 04C6                      clear_ram0 0437  
                    _send_data 0465              SPI_master_write@a 0070                      _vfpfcnvrt 0706  
                  __stringbase 0012                     vfpfcnvrt@c 002C                     ?_send_data 0070  
                   vfprintf@ap 0030                     vfprintf@fp 002D               ?_SPI_master_init 0070  
             ?_SPI_master_read 0070                     ?_vfpfcnvrt 0020             __end_of__stringtab 0013  
                   sprintf@fmt 0032                       __ptext10 047A                       __ptext11 052D  
                     __ptext12 0465                       __ptext13 04C6                       __ptext14 043F  
                     __ptext15 04A8                       __ptext16 0449                       __ptext17 042F  
                     _lcd_init 048F                      send_cmd@b 0072         ?_TC72_read_temperature 0070  
                     _send_cmd 047A                       _vfprintf 0508                       main@temp 0045  
              display_data@ptr 0073                      sprintf@ap 0036                    ??_send_data 0070  
                    stringcode 000D      TC72_read_temperature@temp 0073                    ??_vfpfcnvrt 0024  
                     sprintf@f 0037                       sprintf@s 0031                       stringdir 000D  
                     stringtab 0003  
